ARM GAS  C:\Users\choee\AppData\Local\Temp\ccvdfN2I.s 			page 1


   1              		.cpu cortex-m4
   2              		.eabi_attribute 27, 1
   3              		.eabi_attribute 28, 1
   4              		.eabi_attribute 20, 1
   5              		.eabi_attribute 21, 1
   6              		.eabi_attribute 23, 3
   7              		.eabi_attribute 24, 1
   8              		.eabi_attribute 25, 1
   9              		.eabi_attribute 26, 1
  10              		.eabi_attribute 30, 1
  11              		.eabi_attribute 34, 1
  12              		.eabi_attribute 18, 4
  13              		.file	"bluenrg_gap_aci.c"
  14              		.text
  15              	.Ltext0:
  16              		.cfi_sections	.debug_frame
  17              		.section	.text.aci_gap_init_IDB05A1,"ax",%progbits
  18              		.align	1
  19              		.global	aci_gap_init_IDB05A1
  20              		.syntax unified
  21              		.thumb
  22              		.thumb_func
  23              		.fpu fpv4-sp-d16
  25              	aci_gap_init_IDB05A1:
  26              	.LFB130:
  27              		.file 1 "Middlewares/ST/BlueNRG-MS/hci/controller/bluenrg_gap_aci.c"
   1:Middlewares/ST/BlueNRG-MS/hci/controller/bluenrg_gap_aci.c **** /******************** (C) COPYRIGHT 2014 STMicroelectronics ********************
   2:Middlewares/ST/BlueNRG-MS/hci/controller/bluenrg_gap_aci.c **** * File Name          : bluenrg_hci.c
   3:Middlewares/ST/BlueNRG-MS/hci/controller/bluenrg_gap_aci.c **** * Author             : AMS - HEA&RF BU
   4:Middlewares/ST/BlueNRG-MS/hci/controller/bluenrg_gap_aci.c **** * Version            : V1.0.0
   5:Middlewares/ST/BlueNRG-MS/hci/controller/bluenrg_gap_aci.c **** * Date               : 4-Oct-2013
   6:Middlewares/ST/BlueNRG-MS/hci/controller/bluenrg_gap_aci.c **** * Description        : File with HCI commands for BlueNRG FW6.0 and above.
   7:Middlewares/ST/BlueNRG-MS/hci/controller/bluenrg_gap_aci.c **** ********************************************************************************
   8:Middlewares/ST/BlueNRG-MS/hci/controller/bluenrg_gap_aci.c **** * THE PRESENT FIRMWARE WHICH IS FOR GUIDANCE ONLY AIMS AT PROVIDING CUSTOMERS
   9:Middlewares/ST/BlueNRG-MS/hci/controller/bluenrg_gap_aci.c **** * WITH CODING INFORMATION REGARDING THEIR PRODUCTS IN ORDER FOR THEM TO SAVE TIME.
  10:Middlewares/ST/BlueNRG-MS/hci/controller/bluenrg_gap_aci.c **** * AS A RESULT, STMICROELECTRONICS SHALL NOT BE HELD LIABLE FOR ANY DIRECT,
  11:Middlewares/ST/BlueNRG-MS/hci/controller/bluenrg_gap_aci.c **** * INDIRECT OR CONSEQUENTIAL DAMAGES WITH RESPECT TO ANY CLAIMS ARISING FROM THE
  12:Middlewares/ST/BlueNRG-MS/hci/controller/bluenrg_gap_aci.c **** * CONTENT OF SUCH FIRMWARE AND/OR THE USE MADE BY CUSTOMERS OF THE CODING
  13:Middlewares/ST/BlueNRG-MS/hci/controller/bluenrg_gap_aci.c **** * INFORMATION CONTAINED HEREIN IN CONNECTION WITH THEIR PRODUCTS.
  14:Middlewares/ST/BlueNRG-MS/hci/controller/bluenrg_gap_aci.c **** *******************************************************************************/
  15:Middlewares/ST/BlueNRG-MS/hci/controller/bluenrg_gap_aci.c **** 
  16:Middlewares/ST/BlueNRG-MS/hci/controller/bluenrg_gap_aci.c **** #include "bluenrg_types.h"
  17:Middlewares/ST/BlueNRG-MS/hci/controller/bluenrg_gap_aci.c **** #include "bluenrg_def.h"
  18:Middlewares/ST/BlueNRG-MS/hci/controller/bluenrg_gap_aci.c **** #include "hci_const.h"
  19:Middlewares/ST/BlueNRG-MS/hci/controller/bluenrg_gap_aci.c **** #include "bluenrg_aci_const.h"
  20:Middlewares/ST/BlueNRG-MS/hci/controller/bluenrg_gap_aci.c **** #include "bluenrg_gap_aci.h"
  21:Middlewares/ST/BlueNRG-MS/hci/controller/bluenrg_gap_aci.c **** #include "bluenrg_gatt_server.h"
  22:Middlewares/ST/BlueNRG-MS/hci/controller/bluenrg_gap_aci.c **** #include "bluenrg_gap.h"
  23:Middlewares/ST/BlueNRG-MS/hci/controller/bluenrg_gap_aci.c **** 
  24:Middlewares/ST/BlueNRG-MS/hci/controller/bluenrg_gap_aci.c **** #define MIN(a,b)            ((a) < (b) )? (a) : (b)
  25:Middlewares/ST/BlueNRG-MS/hci/controller/bluenrg_gap_aci.c **** #define MAX(a,b)            ((a) > (b) )? (a) : (b)
  26:Middlewares/ST/BlueNRG-MS/hci/controller/bluenrg_gap_aci.c **** 
  27:Middlewares/ST/BlueNRG-MS/hci/controller/bluenrg_gap_aci.c **** tBleStatus aci_gap_init_IDB05A1(uint8_t role, uint8_t privacy_enabled, uint8_t device_name_char_len
  28:Middlewares/ST/BlueNRG-MS/hci/controller/bluenrg_gap_aci.c **** {
  28              		.loc 1 28 0
  29              		.cfi_startproc
  30              		@ args = 8, pretend = 0, frame = 40
ARM GAS  C:\Users\choee\AppData\Local\Temp\ccvdfN2I.s 			page 2


  31              		@ frame_needed = 0, uses_anonymous_args = 0
  32              	.LVL0:
  33 0000 10B5     		push	{r4, lr}
  34              	.LCFI0:
  35              		.cfi_def_cfa_offset 8
  36              		.cfi_offset 4, -8
  37              		.cfi_offset 14, -4
  38 0002 8AB0     		sub	sp, sp, #40
  39              	.LCFI1:
  40              		.cfi_def_cfa_offset 48
  41 0004 1C46     		mov	r4, r3
  29:Middlewares/ST/BlueNRG-MS/hci/controller/bluenrg_gap_aci.c ****   struct hci_request rq;
  30:Middlewares/ST/BlueNRG-MS/hci/controller/bluenrg_gap_aci.c ****   gap_init_cp_IDB05A1 cp;
  31:Middlewares/ST/BlueNRG-MS/hci/controller/bluenrg_gap_aci.c ****   gap_init_rp resp;
  32:Middlewares/ST/BlueNRG-MS/hci/controller/bluenrg_gap_aci.c ****  
  33:Middlewares/ST/BlueNRG-MS/hci/controller/bluenrg_gap_aci.c ****   cp.role = role;
  42              		.loc 1 33 0
  43 0006 8DF80C00 		strb	r0, [sp, #12]
  34:Middlewares/ST/BlueNRG-MS/hci/controller/bluenrg_gap_aci.c ****   cp.privacy_enabled = privacy_enabled;
  44              		.loc 1 34 0
  45 000a 8DF80D10 		strb	r1, [sp, #13]
  35:Middlewares/ST/BlueNRG-MS/hci/controller/bluenrg_gap_aci.c ****   cp.device_name_char_len = device_name_char_len;
  46              		.loc 1 35 0
  47 000e 8DF80E20 		strb	r2, [sp, #14]
  36:Middlewares/ST/BlueNRG-MS/hci/controller/bluenrg_gap_aci.c ****     
  37:Middlewares/ST/BlueNRG-MS/hci/controller/bluenrg_gap_aci.c ****   BLUENRG_memset(&resp, 0, sizeof(resp));
  48              		.loc 1 37 0
  49 0012 01AB     		add	r3, sp, #4
  50              	.LVL1:
  51 0014 0021     		movs	r1, #0
  52              	.LVL2:
  53 0016 0191     		str	r1, [sp, #4]
  54 0018 CDF80710 		str	r1, [sp, #7]	@ unaligned
  38:Middlewares/ST/BlueNRG-MS/hci/controller/bluenrg_gap_aci.c ****   
  39:Middlewares/ST/BlueNRG-MS/hci/controller/bluenrg_gap_aci.c ****   BLUENRG_memset(&rq, 0, sizeof(rq));
  55              		.loc 1 39 0
  56 001c 0591     		str	r1, [sp, #20]
  40:Middlewares/ST/BlueNRG-MS/hci/controller/bluenrg_gap_aci.c ****   rq.ogf = OGF_VENDOR_CMD;
  57              		.loc 1 40 0
  58 001e 3F22     		movs	r2, #63
  59              	.LVL3:
  60 0020 ADF81020 		strh	r2, [sp, #16]	@ movhi
  41:Middlewares/ST/BlueNRG-MS/hci/controller/bluenrg_gap_aci.c ****   rq.ocf = OCF_GAP_INIT;
  61              		.loc 1 41 0
  62 0024 8A22     		movs	r2, #138
  63 0026 ADF81220 		strh	r2, [sp, #18]	@ movhi
  42:Middlewares/ST/BlueNRG-MS/hci/controller/bluenrg_gap_aci.c ****   rq.cparam = &cp;
  64              		.loc 1 42 0
  65 002a 03AA     		add	r2, sp, #12
  66 002c 0692     		str	r2, [sp, #24]
  43:Middlewares/ST/BlueNRG-MS/hci/controller/bluenrg_gap_aci.c ****   rq.clen = sizeof(cp);
  67              		.loc 1 43 0
  68 002e 0322     		movs	r2, #3
  69 0030 0792     		str	r2, [sp, #28]
  44:Middlewares/ST/BlueNRG-MS/hci/controller/bluenrg_gap_aci.c ****   rq.rparam = &resp;
  70              		.loc 1 44 0
  71 0032 0893     		str	r3, [sp, #32]
ARM GAS  C:\Users\choee\AppData\Local\Temp\ccvdfN2I.s 			page 3


  45:Middlewares/ST/BlueNRG-MS/hci/controller/bluenrg_gap_aci.c ****   rq.rlen = GAP_INIT_RP_SIZE;
  72              		.loc 1 45 0
  73 0034 0723     		movs	r3, #7
  74 0036 0993     		str	r3, [sp, #36]
  46:Middlewares/ST/BlueNRG-MS/hci/controller/bluenrg_gap_aci.c ****   
  47:Middlewares/ST/BlueNRG-MS/hci/controller/bluenrg_gap_aci.c ****   if (hci_send_req(&rq, FALSE) < 0)
  75              		.loc 1 47 0
  76 0038 04A8     		add	r0, sp, #16
  77              	.LVL4:
  78 003a FFF7FEFF 		bl	hci_send_req
  79              	.LVL5:
  80 003e 0028     		cmp	r0, #0
  81 0040 0EDB     		blt	.L3
  48:Middlewares/ST/BlueNRG-MS/hci/controller/bluenrg_gap_aci.c ****     return BLE_STATUS_TIMEOUT;
  49:Middlewares/ST/BlueNRG-MS/hci/controller/bluenrg_gap_aci.c ****   
  50:Middlewares/ST/BlueNRG-MS/hci/controller/bluenrg_gap_aci.c ****   if (resp.status) {
  82              		.loc 1 50 0
  83 0042 9DF80400 		ldrb	r0, [sp, #4]	@ zero_extendqisi2
  84 0046 60B9     		cbnz	r0, .L2
  51:Middlewares/ST/BlueNRG-MS/hci/controller/bluenrg_gap_aci.c ****     return resp.status;
  52:Middlewares/ST/BlueNRG-MS/hci/controller/bluenrg_gap_aci.c ****   }
  53:Middlewares/ST/BlueNRG-MS/hci/controller/bluenrg_gap_aci.c ****   
  54:Middlewares/ST/BlueNRG-MS/hci/controller/bluenrg_gap_aci.c ****   *service_handle = btohs(resp.service_handle);
  85              		.loc 1 54 0
  86 0048 BDF80530 		ldrh	r3, [sp, #5]	@ unaligned
  87 004c 2380     		strh	r3, [r4]	@ movhi
  55:Middlewares/ST/BlueNRG-MS/hci/controller/bluenrg_gap_aci.c ****   *dev_name_char_handle = btohs(resp.dev_name_char_handle);
  88              		.loc 1 55 0
  89 004e BDF80720 		ldrh	r2, [sp, #7]	@ unaligned
  90 0052 0C9B     		ldr	r3, [sp, #48]
  91 0054 1A80     		strh	r2, [r3]	@ movhi
  56:Middlewares/ST/BlueNRG-MS/hci/controller/bluenrg_gap_aci.c ****   *appearance_char_handle = btohs(resp.appearance_char_handle);
  92              		.loc 1 56 0
  93 0056 BDF80920 		ldrh	r2, [sp, #9]	@ unaligned
  94 005a 0D9B     		ldr	r3, [sp, #52]
  95 005c 1A80     		strh	r2, [r3]	@ movhi
  57:Middlewares/ST/BlueNRG-MS/hci/controller/bluenrg_gap_aci.c ****   
  58:Middlewares/ST/BlueNRG-MS/hci/controller/bluenrg_gap_aci.c ****   return 0;
  96              		.loc 1 58 0
  97 005e 00E0     		b	.L2
  98              	.L3:
  48:Middlewares/ST/BlueNRG-MS/hci/controller/bluenrg_gap_aci.c ****   
  99              		.loc 1 48 0
 100 0060 FF20     		movs	r0, #255
 101              	.L2:
  59:Middlewares/ST/BlueNRG-MS/hci/controller/bluenrg_gap_aci.c **** }
 102              		.loc 1 59 0
 103 0062 0AB0     		add	sp, sp, #40
 104              	.LCFI2:
 105              		.cfi_def_cfa_offset 8
 106              		@ sp needed
 107 0064 10BD     		pop	{r4, pc}
 108              		.cfi_endproc
 109              	.LFE130:
 111              		.section	.text.aci_gap_init_IDB04A1,"ax",%progbits
 112              		.align	1
 113              		.global	aci_gap_init_IDB04A1
ARM GAS  C:\Users\choee\AppData\Local\Temp\ccvdfN2I.s 			page 4


 114              		.syntax unified
 115              		.thumb
 116              		.thumb_func
 117              		.fpu fpv4-sp-d16
 119              	aci_gap_init_IDB04A1:
 120              	.LFB131:
  60:Middlewares/ST/BlueNRG-MS/hci/controller/bluenrg_gap_aci.c **** 
  61:Middlewares/ST/BlueNRG-MS/hci/controller/bluenrg_gap_aci.c **** tBleStatus aci_gap_init_IDB04A1(uint8_t role, uint16_t* service_handle, uint16_t* dev_name_char_han
  62:Middlewares/ST/BlueNRG-MS/hci/controller/bluenrg_gap_aci.c **** {
 121              		.loc 1 62 0
 122              		.cfi_startproc
 123              		@ args = 0, pretend = 0, frame = 40
 124              		@ frame_needed = 0, uses_anonymous_args = 0
 125              	.LVL6:
 126 0000 70B5     		push	{r4, r5, r6, lr}
 127              	.LCFI3:
 128              		.cfi_def_cfa_offset 16
 129              		.cfi_offset 4, -16
 130              		.cfi_offset 5, -12
 131              		.cfi_offset 6, -8
 132              		.cfi_offset 14, -4
 133 0002 8AB0     		sub	sp, sp, #40
 134              	.LCFI4:
 135              		.cfi_def_cfa_offset 56
 136 0004 0E46     		mov	r6, r1
 137 0006 1546     		mov	r5, r2
 138 0008 1C46     		mov	r4, r3
  63:Middlewares/ST/BlueNRG-MS/hci/controller/bluenrg_gap_aci.c ****   struct hci_request rq;
  64:Middlewares/ST/BlueNRG-MS/hci/controller/bluenrg_gap_aci.c ****   gap_init_cp_IDB04A1 cp;
  65:Middlewares/ST/BlueNRG-MS/hci/controller/bluenrg_gap_aci.c ****   gap_init_rp resp;
  66:Middlewares/ST/BlueNRG-MS/hci/controller/bluenrg_gap_aci.c **** 
  67:Middlewares/ST/BlueNRG-MS/hci/controller/bluenrg_gap_aci.c ****   cp.role = role;
 139              		.loc 1 67 0
 140 000a 8DF80C00 		strb	r0, [sp, #12]
  68:Middlewares/ST/BlueNRG-MS/hci/controller/bluenrg_gap_aci.c ****     
  69:Middlewares/ST/BlueNRG-MS/hci/controller/bluenrg_gap_aci.c ****   BLUENRG_memset(&resp, 0, sizeof(resp));
 141              		.loc 1 69 0
 142 000e 01AB     		add	r3, sp, #4
 143              	.LVL7:
 144 0010 0021     		movs	r1, #0
 145              	.LVL8:
 146 0012 0191     		str	r1, [sp, #4]
 147 0014 CDF80710 		str	r1, [sp, #7]	@ unaligned
  70:Middlewares/ST/BlueNRG-MS/hci/controller/bluenrg_gap_aci.c ****   
  71:Middlewares/ST/BlueNRG-MS/hci/controller/bluenrg_gap_aci.c ****   BLUENRG_memset(&rq, 0, sizeof(rq));
 148              		.loc 1 71 0
 149 0018 0591     		str	r1, [sp, #20]
  72:Middlewares/ST/BlueNRG-MS/hci/controller/bluenrg_gap_aci.c ****   rq.ogf = OGF_VENDOR_CMD;
 150              		.loc 1 72 0
 151 001a 3F22     		movs	r2, #63
 152              	.LVL9:
 153 001c ADF81020 		strh	r2, [sp, #16]	@ movhi
  73:Middlewares/ST/BlueNRG-MS/hci/controller/bluenrg_gap_aci.c ****   rq.ocf = OCF_GAP_INIT;
 154              		.loc 1 73 0
 155 0020 8A22     		movs	r2, #138
 156 0022 ADF81220 		strh	r2, [sp, #18]	@ movhi
  74:Middlewares/ST/BlueNRG-MS/hci/controller/bluenrg_gap_aci.c ****   rq.cparam = &cp;
ARM GAS  C:\Users\choee\AppData\Local\Temp\ccvdfN2I.s 			page 5


 157              		.loc 1 74 0
 158 0026 03AA     		add	r2, sp, #12
 159 0028 0692     		str	r2, [sp, #24]
  75:Middlewares/ST/BlueNRG-MS/hci/controller/bluenrg_gap_aci.c ****   rq.clen = sizeof(cp);
 160              		.loc 1 75 0
 161 002a 0122     		movs	r2, #1
 162 002c 0792     		str	r2, [sp, #28]
  76:Middlewares/ST/BlueNRG-MS/hci/controller/bluenrg_gap_aci.c ****   rq.rparam = &resp;
 163              		.loc 1 76 0
 164 002e 0893     		str	r3, [sp, #32]
  77:Middlewares/ST/BlueNRG-MS/hci/controller/bluenrg_gap_aci.c ****   rq.rlen = GAP_INIT_RP_SIZE;
 165              		.loc 1 77 0
 166 0030 0723     		movs	r3, #7
 167 0032 0993     		str	r3, [sp, #36]
  78:Middlewares/ST/BlueNRG-MS/hci/controller/bluenrg_gap_aci.c ****   
  79:Middlewares/ST/BlueNRG-MS/hci/controller/bluenrg_gap_aci.c ****   if (hci_send_req(&rq, FALSE) < 0)
 168              		.loc 1 79 0
 169 0034 04A8     		add	r0, sp, #16
 170              	.LVL10:
 171 0036 FFF7FEFF 		bl	hci_send_req
 172              	.LVL11:
 173 003a 0028     		cmp	r0, #0
 174 003c 0CDB     		blt	.L7
  80:Middlewares/ST/BlueNRG-MS/hci/controller/bluenrg_gap_aci.c ****     return BLE_STATUS_TIMEOUT;
  81:Middlewares/ST/BlueNRG-MS/hci/controller/bluenrg_gap_aci.c ****   
  82:Middlewares/ST/BlueNRG-MS/hci/controller/bluenrg_gap_aci.c ****   if (resp.status) {
 175              		.loc 1 82 0
 176 003e 9DF80400 		ldrb	r0, [sp, #4]	@ zero_extendqisi2
 177 0042 50B9     		cbnz	r0, .L6
  83:Middlewares/ST/BlueNRG-MS/hci/controller/bluenrg_gap_aci.c ****     return resp.status;
  84:Middlewares/ST/BlueNRG-MS/hci/controller/bluenrg_gap_aci.c ****   }
  85:Middlewares/ST/BlueNRG-MS/hci/controller/bluenrg_gap_aci.c ****   
  86:Middlewares/ST/BlueNRG-MS/hci/controller/bluenrg_gap_aci.c ****   *service_handle = btohs(resp.service_handle);
 178              		.loc 1 86 0
 179 0044 BDF80530 		ldrh	r3, [sp, #5]	@ unaligned
 180 0048 3380     		strh	r3, [r6]	@ movhi
  87:Middlewares/ST/BlueNRG-MS/hci/controller/bluenrg_gap_aci.c ****   *dev_name_char_handle = btohs(resp.dev_name_char_handle);
 181              		.loc 1 87 0
 182 004a BDF80730 		ldrh	r3, [sp, #7]	@ unaligned
 183 004e 2B80     		strh	r3, [r5]	@ movhi
  88:Middlewares/ST/BlueNRG-MS/hci/controller/bluenrg_gap_aci.c ****   *appearance_char_handle = btohs(resp.appearance_char_handle);
 184              		.loc 1 88 0
 185 0050 BDF80930 		ldrh	r3, [sp, #9]	@ unaligned
 186 0054 2380     		strh	r3, [r4]	@ movhi
  89:Middlewares/ST/BlueNRG-MS/hci/controller/bluenrg_gap_aci.c ****   
  90:Middlewares/ST/BlueNRG-MS/hci/controller/bluenrg_gap_aci.c ****   return 0;
 187              		.loc 1 90 0
 188 0056 00E0     		b	.L6
 189              	.L7:
  80:Middlewares/ST/BlueNRG-MS/hci/controller/bluenrg_gap_aci.c ****   
 190              		.loc 1 80 0
 191 0058 FF20     		movs	r0, #255
 192              	.L6:
  91:Middlewares/ST/BlueNRG-MS/hci/controller/bluenrg_gap_aci.c **** }
 193              		.loc 1 91 0
 194 005a 0AB0     		add	sp, sp, #40
 195              	.LCFI5:
ARM GAS  C:\Users\choee\AppData\Local\Temp\ccvdfN2I.s 			page 6


 196              		.cfi_def_cfa_offset 16
 197              		@ sp needed
 198 005c 70BD     		pop	{r4, r5, r6, pc}
 199              		.cfi_endproc
 200              	.LFE131:
 202              		.section	.text.aci_gap_set_non_discoverable,"ax",%progbits
 203              		.align	1
 204              		.global	aci_gap_set_non_discoverable
 205              		.syntax unified
 206              		.thumb
 207              		.thumb_func
 208              		.fpu fpv4-sp-d16
 210              	aci_gap_set_non_discoverable:
 211              	.LFB132:
  92:Middlewares/ST/BlueNRG-MS/hci/controller/bluenrg_gap_aci.c **** 
  93:Middlewares/ST/BlueNRG-MS/hci/controller/bluenrg_gap_aci.c **** tBleStatus aci_gap_set_non_discoverable(void)
  94:Middlewares/ST/BlueNRG-MS/hci/controller/bluenrg_gap_aci.c **** {
 212              		.loc 1 94 0
 213              		.cfi_startproc
 214              		@ args = 0, pretend = 0, frame = 32
 215              		@ frame_needed = 0, uses_anonymous_args = 0
 216 0000 00B5     		push	{lr}
 217              	.LCFI6:
 218              		.cfi_def_cfa_offset 4
 219              		.cfi_offset 14, -4
 220 0002 89B0     		sub	sp, sp, #36
 221              	.LCFI7:
 222              		.cfi_def_cfa_offset 40
  95:Middlewares/ST/BlueNRG-MS/hci/controller/bluenrg_gap_aci.c ****   struct hci_request rq;
  96:Middlewares/ST/BlueNRG-MS/hci/controller/bluenrg_gap_aci.c ****   uint8_t status;
  97:Middlewares/ST/BlueNRG-MS/hci/controller/bluenrg_gap_aci.c ****   
  98:Middlewares/ST/BlueNRG-MS/hci/controller/bluenrg_gap_aci.c ****   BLUENRG_memset(&rq, 0, sizeof(rq));
 223              		.loc 1 98 0
 224 0004 0021     		movs	r1, #0
 225 0006 0391     		str	r1, [sp, #12]
 226 0008 0491     		str	r1, [sp, #16]
 227 000a 0591     		str	r1, [sp, #20]
  99:Middlewares/ST/BlueNRG-MS/hci/controller/bluenrg_gap_aci.c ****   rq.ogf = OGF_VENDOR_CMD;
 228              		.loc 1 99 0
 229 000c 3F23     		movs	r3, #63
 230 000e ADF80830 		strh	r3, [sp, #8]	@ movhi
 100:Middlewares/ST/BlueNRG-MS/hci/controller/bluenrg_gap_aci.c ****   rq.ocf = OCF_GAP_SET_NON_DISCOVERABLE;
 231              		.loc 1 100 0
 232 0012 8123     		movs	r3, #129
 233 0014 ADF80A30 		strh	r3, [sp, #10]	@ movhi
 101:Middlewares/ST/BlueNRG-MS/hci/controller/bluenrg_gap_aci.c ****   rq.rparam = &status;
 234              		.loc 1 101 0
 235 0018 0DF10703 		add	r3, sp, #7
 236 001c 0693     		str	r3, [sp, #24]
 102:Middlewares/ST/BlueNRG-MS/hci/controller/bluenrg_gap_aci.c ****   rq.rlen = 1;
 237              		.loc 1 102 0
 238 001e 0123     		movs	r3, #1
 239 0020 0793     		str	r3, [sp, #28]
 103:Middlewares/ST/BlueNRG-MS/hci/controller/bluenrg_gap_aci.c ****   
 104:Middlewares/ST/BlueNRG-MS/hci/controller/bluenrg_gap_aci.c ****   if (hci_send_req(&rq, FALSE) < 0)
 240              		.loc 1 104 0
 241 0022 02A8     		add	r0, sp, #8
ARM GAS  C:\Users\choee\AppData\Local\Temp\ccvdfN2I.s 			page 7


 242 0024 FFF7FEFF 		bl	hci_send_req
 243              	.LVL12:
 244 0028 0028     		cmp	r0, #0
 245 002a 04DB     		blt	.L11
 105:Middlewares/ST/BlueNRG-MS/hci/controller/bluenrg_gap_aci.c ****     return BLE_STATUS_TIMEOUT;
 106:Middlewares/ST/BlueNRG-MS/hci/controller/bluenrg_gap_aci.c ****   
 107:Middlewares/ST/BlueNRG-MS/hci/controller/bluenrg_gap_aci.c ****   return status;  
 246              		.loc 1 107 0
 247 002c 9DF80700 		ldrb	r0, [sp, #7]	@ zero_extendqisi2
 248              	.L10:
 108:Middlewares/ST/BlueNRG-MS/hci/controller/bluenrg_gap_aci.c **** }
 249              		.loc 1 108 0
 250 0030 09B0     		add	sp, sp, #36
 251              	.LCFI8:
 252              		.cfi_remember_state
 253              		.cfi_def_cfa_offset 4
 254              		@ sp needed
 255 0032 5DF804FB 		ldr	pc, [sp], #4
 256              	.L11:
 257              	.LCFI9:
 258              		.cfi_restore_state
 105:Middlewares/ST/BlueNRG-MS/hci/controller/bluenrg_gap_aci.c ****     return BLE_STATUS_TIMEOUT;
 259              		.loc 1 105 0
 260 0036 FF20     		movs	r0, #255
 261 0038 FAE7     		b	.L10
 262              		.cfi_endproc
 263              	.LFE132:
 265              		.section	.text.aci_gap_set_limited_discoverable,"ax",%progbits
 266              		.align	1
 267              		.global	aci_gap_set_limited_discoverable
 268              		.syntax unified
 269              		.thumb
 270              		.thumb_func
 271              		.fpu fpv4-sp-d16
 273              	aci_gap_set_limited_discoverable:
 274              	.LFB133:
 109:Middlewares/ST/BlueNRG-MS/hci/controller/bluenrg_gap_aci.c **** 
 110:Middlewares/ST/BlueNRG-MS/hci/controller/bluenrg_gap_aci.c **** tBleStatus aci_gap_set_limited_discoverable(uint8_t AdvType, uint16_t AdvIntervMin, uint16_t AdvInt
 111:Middlewares/ST/BlueNRG-MS/hci/controller/bluenrg_gap_aci.c **** 					    uint8_t OwnAddrType, uint8_t AdvFilterPolicy, uint8_t LocalNameLen,
 112:Middlewares/ST/BlueNRG-MS/hci/controller/bluenrg_gap_aci.c **** 					    const char *LocalName, uint8_t ServiceUUIDLen, uint8_t* ServiceUUIDList,
 113:Middlewares/ST/BlueNRG-MS/hci/controller/bluenrg_gap_aci.c **** 					    uint16_t SlaveConnIntervMin, uint16_t SlaveConnIntervMax)
 114:Middlewares/ST/BlueNRG-MS/hci/controller/bluenrg_gap_aci.c **** {
 275              		.loc 1 114 0
 276              		.cfi_startproc
 277              		@ args = 28, pretend = 0, frame = 72
 278              		@ frame_needed = 0, uses_anonymous_args = 0
 279              	.LVL13:
 280 0000 70B5     		push	{r4, r5, r6, lr}
 281              	.LCFI10:
 282              		.cfi_def_cfa_offset 16
 283              		.cfi_offset 4, -16
 284              		.cfi_offset 5, -12
 285              		.cfi_offset 6, -8
 286              		.cfi_offset 14, -4
 287 0002 92B0     		sub	sp, sp, #72
 288              	.LCFI11:
 289              		.cfi_def_cfa_offset 88
ARM GAS  C:\Users\choee\AppData\Local\Temp\ccvdfN2I.s 			page 8


 290 0004 9DF85C60 		ldrb	r6, [sp, #92]	@ zero_extendqisi2
 291 0008 9DF86440 		ldrb	r4, [sp, #100]	@ zero_extendqisi2
 292              	.LVL14:
 115:Middlewares/ST/BlueNRG-MS/hci/controller/bluenrg_gap_aci.c ****   struct hci_request rq;
 116:Middlewares/ST/BlueNRG-MS/hci/controller/bluenrg_gap_aci.c ****   uint8_t status;    
 117:Middlewares/ST/BlueNRG-MS/hci/controller/bluenrg_gap_aci.c ****   uint8_t buffer[40];
 118:Middlewares/ST/BlueNRG-MS/hci/controller/bluenrg_gap_aci.c ****   uint8_t indx = 0;
 119:Middlewares/ST/BlueNRG-MS/hci/controller/bluenrg_gap_aci.c ****     
 120:Middlewares/ST/BlueNRG-MS/hci/controller/bluenrg_gap_aci.c ****   if ((LocalNameLen+ServiceUUIDLen+14) > sizeof(buffer))
 293              		.loc 1 120 0
 294 000c 3519     		adds	r5, r6, r4
 295 000e 0E35     		adds	r5, r5, #14
 296 0010 282D     		cmp	r5, #40
 297 0012 02D9     		bls	.L18
 121:Middlewares/ST/BlueNRG-MS/hci/controller/bluenrg_gap_aci.c ****     return BLE_STATUS_INVALID_PARAMS;
 298              		.loc 1 121 0
 299 0014 4220     		movs	r0, #66
 300              	.LVL15:
 301              	.L14:
 122:Middlewares/ST/BlueNRG-MS/hci/controller/bluenrg_gap_aci.c **** 
 123:Middlewares/ST/BlueNRG-MS/hci/controller/bluenrg_gap_aci.c ****   buffer[indx] = AdvType;
 124:Middlewares/ST/BlueNRG-MS/hci/controller/bluenrg_gap_aci.c ****   indx++;
 125:Middlewares/ST/BlueNRG-MS/hci/controller/bluenrg_gap_aci.c ****     
 126:Middlewares/ST/BlueNRG-MS/hci/controller/bluenrg_gap_aci.c ****   AdvIntervMin = htobs(AdvIntervMin);
 127:Middlewares/ST/BlueNRG-MS/hci/controller/bluenrg_gap_aci.c ****   BLUENRG_memcpy(buffer + indx, &AdvIntervMin, 2);
 128:Middlewares/ST/BlueNRG-MS/hci/controller/bluenrg_gap_aci.c ****   indx +=  2;
 129:Middlewares/ST/BlueNRG-MS/hci/controller/bluenrg_gap_aci.c ****     
 130:Middlewares/ST/BlueNRG-MS/hci/controller/bluenrg_gap_aci.c ****   AdvIntervMax = htobs(AdvIntervMax);
 131:Middlewares/ST/BlueNRG-MS/hci/controller/bluenrg_gap_aci.c ****   BLUENRG_memcpy(buffer + indx, &AdvIntervMax, 2);
 132:Middlewares/ST/BlueNRG-MS/hci/controller/bluenrg_gap_aci.c ****   indx +=  2;
 133:Middlewares/ST/BlueNRG-MS/hci/controller/bluenrg_gap_aci.c ****     
 134:Middlewares/ST/BlueNRG-MS/hci/controller/bluenrg_gap_aci.c ****   buffer[indx] = OwnAddrType;
 135:Middlewares/ST/BlueNRG-MS/hci/controller/bluenrg_gap_aci.c ****   indx++;
 136:Middlewares/ST/BlueNRG-MS/hci/controller/bluenrg_gap_aci.c ****     
 137:Middlewares/ST/BlueNRG-MS/hci/controller/bluenrg_gap_aci.c ****   buffer[indx] = AdvFilterPolicy;
 138:Middlewares/ST/BlueNRG-MS/hci/controller/bluenrg_gap_aci.c ****   indx++;
 139:Middlewares/ST/BlueNRG-MS/hci/controller/bluenrg_gap_aci.c ****     
 140:Middlewares/ST/BlueNRG-MS/hci/controller/bluenrg_gap_aci.c ****   buffer[indx] = LocalNameLen;
 141:Middlewares/ST/BlueNRG-MS/hci/controller/bluenrg_gap_aci.c ****   indx++;
 142:Middlewares/ST/BlueNRG-MS/hci/controller/bluenrg_gap_aci.c ****     
 143:Middlewares/ST/BlueNRG-MS/hci/controller/bluenrg_gap_aci.c ****   BLUENRG_memcpy(buffer + indx, LocalName, LocalNameLen);
 144:Middlewares/ST/BlueNRG-MS/hci/controller/bluenrg_gap_aci.c ****   indx +=  LocalNameLen;
 145:Middlewares/ST/BlueNRG-MS/hci/controller/bluenrg_gap_aci.c **** 
 146:Middlewares/ST/BlueNRG-MS/hci/controller/bluenrg_gap_aci.c ****   buffer[indx] = ServiceUUIDLen;
 147:Middlewares/ST/BlueNRG-MS/hci/controller/bluenrg_gap_aci.c ****   indx++;
 148:Middlewares/ST/BlueNRG-MS/hci/controller/bluenrg_gap_aci.c **** 
 149:Middlewares/ST/BlueNRG-MS/hci/controller/bluenrg_gap_aci.c ****   BLUENRG_memcpy(buffer + indx, ServiceUUIDList, ServiceUUIDLen);
 150:Middlewares/ST/BlueNRG-MS/hci/controller/bluenrg_gap_aci.c ****   indx +=  ServiceUUIDLen;
 151:Middlewares/ST/BlueNRG-MS/hci/controller/bluenrg_gap_aci.c **** 
 152:Middlewares/ST/BlueNRG-MS/hci/controller/bluenrg_gap_aci.c ****   BLUENRG_memcpy(buffer + indx, &SlaveConnIntervMin, 2);
 153:Middlewares/ST/BlueNRG-MS/hci/controller/bluenrg_gap_aci.c ****   indx +=  2;
 154:Middlewares/ST/BlueNRG-MS/hci/controller/bluenrg_gap_aci.c **** 
 155:Middlewares/ST/BlueNRG-MS/hci/controller/bluenrg_gap_aci.c ****   BLUENRG_memcpy(buffer + indx, &SlaveConnIntervMax, 2);
 156:Middlewares/ST/BlueNRG-MS/hci/controller/bluenrg_gap_aci.c ****   indx +=  2;    
 157:Middlewares/ST/BlueNRG-MS/hci/controller/bluenrg_gap_aci.c **** 
 158:Middlewares/ST/BlueNRG-MS/hci/controller/bluenrg_gap_aci.c ****   BLUENRG_memset(&rq, 0, sizeof(rq));
 159:Middlewares/ST/BlueNRG-MS/hci/controller/bluenrg_gap_aci.c ****   rq.ogf = OGF_VENDOR_CMD;
ARM GAS  C:\Users\choee\AppData\Local\Temp\ccvdfN2I.s 			page 9


 160:Middlewares/ST/BlueNRG-MS/hci/controller/bluenrg_gap_aci.c ****   rq.ocf = OCF_GAP_SET_LIMITED_DISCOVERABLE;
 161:Middlewares/ST/BlueNRG-MS/hci/controller/bluenrg_gap_aci.c ****   rq.cparam = (void *)buffer;
 162:Middlewares/ST/BlueNRG-MS/hci/controller/bluenrg_gap_aci.c ****   rq.clen = indx;
 163:Middlewares/ST/BlueNRG-MS/hci/controller/bluenrg_gap_aci.c ****   rq.event = EVT_CMD_STATUS;
 164:Middlewares/ST/BlueNRG-MS/hci/controller/bluenrg_gap_aci.c ****   rq.rparam = &status;
 165:Middlewares/ST/BlueNRG-MS/hci/controller/bluenrg_gap_aci.c ****   rq.rlen = 1;
 166:Middlewares/ST/BlueNRG-MS/hci/controller/bluenrg_gap_aci.c **** 
 167:Middlewares/ST/BlueNRG-MS/hci/controller/bluenrg_gap_aci.c ****   if (hci_send_req(&rq, FALSE) < 0)
 168:Middlewares/ST/BlueNRG-MS/hci/controller/bluenrg_gap_aci.c ****     return BLE_STATUS_TIMEOUT;
 169:Middlewares/ST/BlueNRG-MS/hci/controller/bluenrg_gap_aci.c **** 
 170:Middlewares/ST/BlueNRG-MS/hci/controller/bluenrg_gap_aci.c ****   return status;
 171:Middlewares/ST/BlueNRG-MS/hci/controller/bluenrg_gap_aci.c **** }
 302              		.loc 1 171 0
 303 0016 12B0     		add	sp, sp, #72
 304              	.LCFI12:
 305              		.cfi_remember_state
 306              		.cfi_def_cfa_offset 16
 307              		@ sp needed
 308 0018 70BD     		pop	{r4, r5, r6, pc}
 309              	.LVL16:
 310              	.L18:
 311              	.LCFI13:
 312              		.cfi_restore_state
 123:Middlewares/ST/BlueNRG-MS/hci/controller/bluenrg_gap_aci.c ****   indx++;
 313              		.loc 1 123 0
 314 001a 8DF80400 		strb	r0, [sp, #4]
 315              	.LVL17:
 127:Middlewares/ST/BlueNRG-MS/hci/controller/bluenrg_gap_aci.c ****   indx +=  2;
 316              		.loc 1 127 0
 317 001e ADF80510 		strh	r1, [sp, #5]	@ unaligned
 318              	.LVL18:
 131:Middlewares/ST/BlueNRG-MS/hci/controller/bluenrg_gap_aci.c ****   indx +=  2;
 319              		.loc 1 131 0
 320 0022 ADF80720 		strh	r2, [sp, #7]	@ unaligned
 321              	.LVL19:
 134:Middlewares/ST/BlueNRG-MS/hci/controller/bluenrg_gap_aci.c ****   indx++;
 322              		.loc 1 134 0
 323 0026 8DF80930 		strb	r3, [sp, #9]
 324              	.LVL20:
 137:Middlewares/ST/BlueNRG-MS/hci/controller/bluenrg_gap_aci.c ****   indx++;
 325              		.loc 1 137 0
 326 002a 9DF85830 		ldrb	r3, [sp, #88]	@ zero_extendqisi2
 327              	.LVL21:
 328 002e 8DF80A30 		strb	r3, [sp, #10]
 329              	.LVL22:
 140:Middlewares/ST/BlueNRG-MS/hci/controller/bluenrg_gap_aci.c ****   indx++;
 330              		.loc 1 140 0
 331 0032 8DF80B60 		strb	r6, [sp, #11]
 332              	.LVL23:
 143:Middlewares/ST/BlueNRG-MS/hci/controller/bluenrg_gap_aci.c ****   indx +=  LocalNameLen;
 333              		.loc 1 143 0
 334 0036 01AD     		add	r5, sp, #4
 335 0038 3246     		mov	r2, r6
 336              	.LVL24:
 337 003a 1899     		ldr	r1, [sp, #96]
 338              	.LVL25:
 339 003c 03A8     		add	r0, sp, #12
ARM GAS  C:\Users\choee\AppData\Local\Temp\ccvdfN2I.s 			page 10


 340              	.LVL26:
 341 003e FFF7FEFF 		bl	memcpy
 342              	.LVL27:
 144:Middlewares/ST/BlueNRG-MS/hci/controller/bluenrg_gap_aci.c **** 
 343              		.loc 1 144 0
 344 0042 06F10803 		add	r3, r6, #8
 345              	.LVL28:
 146:Middlewares/ST/BlueNRG-MS/hci/controller/bluenrg_gap_aci.c ****   indx++;
 346              		.loc 1 146 0
 347 0046 12AA     		add	r2, sp, #72
 348 0048 52FA83F3 		uxtab	r3, r2, r3
 349              	.LVL29:
 350 004c 03F8444C 		strb	r4, [r3, #-68]
 147:Middlewares/ST/BlueNRG-MS/hci/controller/bluenrg_gap_aci.c **** 
 351              		.loc 1 147 0
 352 0050 0936     		adds	r6, r6, #9
 353              	.LVL30:
 354 0052 F6B2     		uxtb	r6, r6
 355              	.LVL31:
 149:Middlewares/ST/BlueNRG-MS/hci/controller/bluenrg_gap_aci.c ****   indx +=  ServiceUUIDLen;
 356              		.loc 1 149 0
 357 0054 2246     		mov	r2, r4
 358 0056 1A99     		ldr	r1, [sp, #104]
 359 0058 A819     		adds	r0, r5, r6
 360 005a FFF7FEFF 		bl	memcpy
 361              	.LVL32:
 150:Middlewares/ST/BlueNRG-MS/hci/controller/bluenrg_gap_aci.c **** 
 362              		.loc 1 150 0
 363 005e 3444     		add	r4, r4, r6
 364 0060 E4B2     		uxtb	r4, r4
 365              	.LVL33:
 152:Middlewares/ST/BlueNRG-MS/hci/controller/bluenrg_gap_aci.c ****   indx +=  2;
 366              		.loc 1 152 0
 367 0062 12AB     		add	r3, sp, #72
 368 0064 2344     		add	r3, r3, r4
 369 0066 BDF86C20 		ldrh	r2, [sp, #108]
 370 006a 23F8442C 		strh	r2, [r3, #-68]	@ unaligned
 153:Middlewares/ST/BlueNRG-MS/hci/controller/bluenrg_gap_aci.c **** 
 371              		.loc 1 153 0
 372 006e A31C     		adds	r3, r4, #2
 373              	.LVL34:
 155:Middlewares/ST/BlueNRG-MS/hci/controller/bluenrg_gap_aci.c ****   indx +=  2;    
 374              		.loc 1 155 0
 375 0070 12AA     		add	r2, sp, #72
 376 0072 52FA83F3 		uxtab	r3, r2, r3
 377              	.LVL35:
 378 0076 BDF87020 		ldrh	r2, [sp, #112]
 379 007a 23F8442C 		strh	r2, [r3, #-68]	@ unaligned
 156:Middlewares/ST/BlueNRG-MS/hci/controller/bluenrg_gap_aci.c **** 
 380              		.loc 1 156 0
 381 007e 0434     		adds	r4, r4, #4
 382              	.LVL36:
 383 0080 E4B2     		uxtb	r4, r4
 384              	.LVL37:
 159:Middlewares/ST/BlueNRG-MS/hci/controller/bluenrg_gap_aci.c ****   rq.ocf = OCF_GAP_SET_LIMITED_DISCOVERABLE;
 385              		.loc 1 159 0
 386 0082 3F23     		movs	r3, #63
ARM GAS  C:\Users\choee\AppData\Local\Temp\ccvdfN2I.s 			page 11


 387 0084 ADF83030 		strh	r3, [sp, #48]	@ movhi
 160:Middlewares/ST/BlueNRG-MS/hci/controller/bluenrg_gap_aci.c ****   rq.cparam = (void *)buffer;
 388              		.loc 1 160 0
 389 0088 8223     		movs	r3, #130
 390 008a ADF83230 		strh	r3, [sp, #50]	@ movhi
 161:Middlewares/ST/BlueNRG-MS/hci/controller/bluenrg_gap_aci.c ****   rq.clen = indx;
 391              		.loc 1 161 0
 392 008e 0E95     		str	r5, [sp, #56]
 162:Middlewares/ST/BlueNRG-MS/hci/controller/bluenrg_gap_aci.c ****   rq.event = EVT_CMD_STATUS;
 393              		.loc 1 162 0
 394 0090 0F94     		str	r4, [sp, #60]
 163:Middlewares/ST/BlueNRG-MS/hci/controller/bluenrg_gap_aci.c ****   rq.rparam = &status;
 395              		.loc 1 163 0
 396 0092 0F23     		movs	r3, #15
 397 0094 0D93     		str	r3, [sp, #52]
 164:Middlewares/ST/BlueNRG-MS/hci/controller/bluenrg_gap_aci.c ****   rq.rlen = 1;
 398              		.loc 1 164 0
 399 0096 0DF12F03 		add	r3, sp, #47
 400 009a 1093     		str	r3, [sp, #64]
 165:Middlewares/ST/BlueNRG-MS/hci/controller/bluenrg_gap_aci.c **** 
 401              		.loc 1 165 0
 402 009c 0123     		movs	r3, #1
 403 009e 1193     		str	r3, [sp, #68]
 167:Middlewares/ST/BlueNRG-MS/hci/controller/bluenrg_gap_aci.c ****     return BLE_STATUS_TIMEOUT;
 404              		.loc 1 167 0
 405 00a0 0021     		movs	r1, #0
 406 00a2 0CA8     		add	r0, sp, #48
 407 00a4 FFF7FEFF 		bl	hci_send_req
 408              	.LVL38:
 409 00a8 0028     		cmp	r0, #0
 410 00aa 02DB     		blt	.L16
 170:Middlewares/ST/BlueNRG-MS/hci/controller/bluenrg_gap_aci.c **** }
 411              		.loc 1 170 0
 412 00ac 9DF82F00 		ldrb	r0, [sp, #47]	@ zero_extendqisi2
 413 00b0 B1E7     		b	.L14
 414              	.L16:
 168:Middlewares/ST/BlueNRG-MS/hci/controller/bluenrg_gap_aci.c **** 
 415              		.loc 1 168 0
 416 00b2 FF20     		movs	r0, #255
 417 00b4 AFE7     		b	.L14
 418              		.cfi_endproc
 419              	.LFE133:
 421              		.section	.text.aci_gap_set_discoverable,"ax",%progbits
 422              		.align	1
 423              		.global	aci_gap_set_discoverable
 424              		.syntax unified
 425              		.thumb
 426              		.thumb_func
 427              		.fpu fpv4-sp-d16
 429              	aci_gap_set_discoverable:
 430              	.LFB134:
 172:Middlewares/ST/BlueNRG-MS/hci/controller/bluenrg_gap_aci.c **** 
 173:Middlewares/ST/BlueNRG-MS/hci/controller/bluenrg_gap_aci.c **** tBleStatus aci_gap_set_discoverable(uint8_t AdvType, uint16_t AdvIntervMin, uint16_t AdvIntervMax,
 174:Middlewares/ST/BlueNRG-MS/hci/controller/bluenrg_gap_aci.c ****                              uint8_t OwnAddrType, uint8_t AdvFilterPolicy, uint8_t LocalNameLen,
 175:Middlewares/ST/BlueNRG-MS/hci/controller/bluenrg_gap_aci.c ****                              const char *LocalName, uint8_t ServiceUUIDLen, uint8_t* ServiceUUIDLis
 176:Middlewares/ST/BlueNRG-MS/hci/controller/bluenrg_gap_aci.c ****                              uint16_t SlaveConnIntervMin, uint16_t SlaveConnIntervMax)
 177:Middlewares/ST/BlueNRG-MS/hci/controller/bluenrg_gap_aci.c **** {
ARM GAS  C:\Users\choee\AppData\Local\Temp\ccvdfN2I.s 			page 12


 431              		.loc 1 177 0
 432              		.cfi_startproc
 433              		@ args = 28, pretend = 0, frame = 72
 434              		@ frame_needed = 0, uses_anonymous_args = 0
 435              	.LVL39:
 436 0000 70B5     		push	{r4, r5, r6, lr}
 437              	.LCFI14:
 438              		.cfi_def_cfa_offset 16
 439              		.cfi_offset 4, -16
 440              		.cfi_offset 5, -12
 441              		.cfi_offset 6, -8
 442              		.cfi_offset 14, -4
 443 0002 92B0     		sub	sp, sp, #72
 444              	.LCFI15:
 445              		.cfi_def_cfa_offset 88
 446 0004 9DF85C60 		ldrb	r6, [sp, #92]	@ zero_extendqisi2
 447 0008 9DF86440 		ldrb	r4, [sp, #100]	@ zero_extendqisi2
 448              	.LVL40:
 178:Middlewares/ST/BlueNRG-MS/hci/controller/bluenrg_gap_aci.c ****   struct hci_request rq;
 179:Middlewares/ST/BlueNRG-MS/hci/controller/bluenrg_gap_aci.c ****   uint8_t status;    
 180:Middlewares/ST/BlueNRG-MS/hci/controller/bluenrg_gap_aci.c ****   uint8_t buffer[40];
 181:Middlewares/ST/BlueNRG-MS/hci/controller/bluenrg_gap_aci.c ****   uint8_t indx = 0;
 182:Middlewares/ST/BlueNRG-MS/hci/controller/bluenrg_gap_aci.c ****   
 183:Middlewares/ST/BlueNRG-MS/hci/controller/bluenrg_gap_aci.c ****   if ((LocalNameLen+ServiceUUIDLen+14) > sizeof(buffer))
 449              		.loc 1 183 0
 450 000c 3519     		adds	r5, r6, r4
 451 000e 0E35     		adds	r5, r5, #14
 452 0010 282D     		cmp	r5, #40
 453 0012 02D9     		bls	.L24
 184:Middlewares/ST/BlueNRG-MS/hci/controller/bluenrg_gap_aci.c ****     return BLE_STATUS_INVALID_PARAMS;
 454              		.loc 1 184 0
 455 0014 4220     		movs	r0, #66
 456              	.LVL41:
 457              	.L20:
 185:Middlewares/ST/BlueNRG-MS/hci/controller/bluenrg_gap_aci.c **** 
 186:Middlewares/ST/BlueNRG-MS/hci/controller/bluenrg_gap_aci.c ****   buffer[indx] = AdvType;
 187:Middlewares/ST/BlueNRG-MS/hci/controller/bluenrg_gap_aci.c ****   indx++;
 188:Middlewares/ST/BlueNRG-MS/hci/controller/bluenrg_gap_aci.c ****   
 189:Middlewares/ST/BlueNRG-MS/hci/controller/bluenrg_gap_aci.c ****   AdvIntervMin = htobs(AdvIntervMin);
 190:Middlewares/ST/BlueNRG-MS/hci/controller/bluenrg_gap_aci.c ****   BLUENRG_memcpy(buffer + indx, &AdvIntervMin, 2);
 191:Middlewares/ST/BlueNRG-MS/hci/controller/bluenrg_gap_aci.c ****   indx +=  2;
 192:Middlewares/ST/BlueNRG-MS/hci/controller/bluenrg_gap_aci.c ****     
 193:Middlewares/ST/BlueNRG-MS/hci/controller/bluenrg_gap_aci.c ****   AdvIntervMax = htobs(AdvIntervMax);
 194:Middlewares/ST/BlueNRG-MS/hci/controller/bluenrg_gap_aci.c ****   BLUENRG_memcpy(buffer + indx, &AdvIntervMax, 2);
 195:Middlewares/ST/BlueNRG-MS/hci/controller/bluenrg_gap_aci.c ****   indx +=  2;
 196:Middlewares/ST/BlueNRG-MS/hci/controller/bluenrg_gap_aci.c ****     
 197:Middlewares/ST/BlueNRG-MS/hci/controller/bluenrg_gap_aci.c ****   buffer[indx] = OwnAddrType;
 198:Middlewares/ST/BlueNRG-MS/hci/controller/bluenrg_gap_aci.c ****   indx++;
 199:Middlewares/ST/BlueNRG-MS/hci/controller/bluenrg_gap_aci.c ****     
 200:Middlewares/ST/BlueNRG-MS/hci/controller/bluenrg_gap_aci.c ****   buffer[indx] = AdvFilterPolicy;
 201:Middlewares/ST/BlueNRG-MS/hci/controller/bluenrg_gap_aci.c ****   indx++;
 202:Middlewares/ST/BlueNRG-MS/hci/controller/bluenrg_gap_aci.c ****     
 203:Middlewares/ST/BlueNRG-MS/hci/controller/bluenrg_gap_aci.c ****   buffer[indx] = LocalNameLen;
 204:Middlewares/ST/BlueNRG-MS/hci/controller/bluenrg_gap_aci.c ****   indx++;
 205:Middlewares/ST/BlueNRG-MS/hci/controller/bluenrg_gap_aci.c ****     
 206:Middlewares/ST/BlueNRG-MS/hci/controller/bluenrg_gap_aci.c ****   BLUENRG_memcpy(buffer + indx, LocalName, LocalNameLen);
 207:Middlewares/ST/BlueNRG-MS/hci/controller/bluenrg_gap_aci.c ****   indx +=  LocalNameLen;
ARM GAS  C:\Users\choee\AppData\Local\Temp\ccvdfN2I.s 			page 13


 208:Middlewares/ST/BlueNRG-MS/hci/controller/bluenrg_gap_aci.c ****   
 209:Middlewares/ST/BlueNRG-MS/hci/controller/bluenrg_gap_aci.c ****   buffer[indx] = ServiceUUIDLen;
 210:Middlewares/ST/BlueNRG-MS/hci/controller/bluenrg_gap_aci.c ****   indx++;
 211:Middlewares/ST/BlueNRG-MS/hci/controller/bluenrg_gap_aci.c **** 
 212:Middlewares/ST/BlueNRG-MS/hci/controller/bluenrg_gap_aci.c ****   BLUENRG_memcpy(buffer + indx, ServiceUUIDList, ServiceUUIDLen);
 213:Middlewares/ST/BlueNRG-MS/hci/controller/bluenrg_gap_aci.c ****   indx +=  ServiceUUIDLen;  
 214:Middlewares/ST/BlueNRG-MS/hci/controller/bluenrg_gap_aci.c **** 
 215:Middlewares/ST/BlueNRG-MS/hci/controller/bluenrg_gap_aci.c ****   SlaveConnIntervMin = htobs(SlaveConnIntervMin);
 216:Middlewares/ST/BlueNRG-MS/hci/controller/bluenrg_gap_aci.c ****   BLUENRG_memcpy(buffer + indx, &SlaveConnIntervMin, 2);
 217:Middlewares/ST/BlueNRG-MS/hci/controller/bluenrg_gap_aci.c ****   indx +=  2;
 218:Middlewares/ST/BlueNRG-MS/hci/controller/bluenrg_gap_aci.c ****   
 219:Middlewares/ST/BlueNRG-MS/hci/controller/bluenrg_gap_aci.c ****   SlaveConnIntervMax = htobs(SlaveConnIntervMax);
 220:Middlewares/ST/BlueNRG-MS/hci/controller/bluenrg_gap_aci.c ****   BLUENRG_memcpy(buffer + indx, &SlaveConnIntervMax, 2);
 221:Middlewares/ST/BlueNRG-MS/hci/controller/bluenrg_gap_aci.c ****   indx +=  2;    
 222:Middlewares/ST/BlueNRG-MS/hci/controller/bluenrg_gap_aci.c **** 
 223:Middlewares/ST/BlueNRG-MS/hci/controller/bluenrg_gap_aci.c ****   BLUENRG_memset(&rq, 0, sizeof(rq));
 224:Middlewares/ST/BlueNRG-MS/hci/controller/bluenrg_gap_aci.c ****   rq.ogf = OGF_VENDOR_CMD;
 225:Middlewares/ST/BlueNRG-MS/hci/controller/bluenrg_gap_aci.c ****   rq.ocf = OCF_GAP_SET_DISCOVERABLE;
 226:Middlewares/ST/BlueNRG-MS/hci/controller/bluenrg_gap_aci.c ****   rq.cparam = (void *)buffer;
 227:Middlewares/ST/BlueNRG-MS/hci/controller/bluenrg_gap_aci.c ****   rq.clen = indx;
 228:Middlewares/ST/BlueNRG-MS/hci/controller/bluenrg_gap_aci.c ****   rq.rparam = &status;
 229:Middlewares/ST/BlueNRG-MS/hci/controller/bluenrg_gap_aci.c ****   rq.rlen = 1;
 230:Middlewares/ST/BlueNRG-MS/hci/controller/bluenrg_gap_aci.c **** 
 231:Middlewares/ST/BlueNRG-MS/hci/controller/bluenrg_gap_aci.c ****   if (hci_send_req(&rq, FALSE) < 0)
 232:Middlewares/ST/BlueNRG-MS/hci/controller/bluenrg_gap_aci.c ****     return BLE_STATUS_TIMEOUT;
 233:Middlewares/ST/BlueNRG-MS/hci/controller/bluenrg_gap_aci.c **** 
 234:Middlewares/ST/BlueNRG-MS/hci/controller/bluenrg_gap_aci.c ****   if (status) {
 235:Middlewares/ST/BlueNRG-MS/hci/controller/bluenrg_gap_aci.c ****     return status;
 236:Middlewares/ST/BlueNRG-MS/hci/controller/bluenrg_gap_aci.c ****   }
 237:Middlewares/ST/BlueNRG-MS/hci/controller/bluenrg_gap_aci.c **** 
 238:Middlewares/ST/BlueNRG-MS/hci/controller/bluenrg_gap_aci.c ****   return 0;
 239:Middlewares/ST/BlueNRG-MS/hci/controller/bluenrg_gap_aci.c **** }
 458              		.loc 1 239 0
 459 0016 12B0     		add	sp, sp, #72
 460              	.LCFI16:
 461              		.cfi_remember_state
 462              		.cfi_def_cfa_offset 16
 463              		@ sp needed
 464 0018 70BD     		pop	{r4, r5, r6, pc}
 465              	.LVL42:
 466              	.L24:
 467              	.LCFI17:
 468              		.cfi_restore_state
 186:Middlewares/ST/BlueNRG-MS/hci/controller/bluenrg_gap_aci.c ****   indx++;
 469              		.loc 1 186 0
 470 001a 8DF80400 		strb	r0, [sp, #4]
 471              	.LVL43:
 190:Middlewares/ST/BlueNRG-MS/hci/controller/bluenrg_gap_aci.c ****   indx +=  2;
 472              		.loc 1 190 0
 473 001e ADF80510 		strh	r1, [sp, #5]	@ unaligned
 474              	.LVL44:
 194:Middlewares/ST/BlueNRG-MS/hci/controller/bluenrg_gap_aci.c ****   indx +=  2;
 475              		.loc 1 194 0
 476 0022 ADF80720 		strh	r2, [sp, #7]	@ unaligned
 477              	.LVL45:
 197:Middlewares/ST/BlueNRG-MS/hci/controller/bluenrg_gap_aci.c ****   indx++;
 478              		.loc 1 197 0
ARM GAS  C:\Users\choee\AppData\Local\Temp\ccvdfN2I.s 			page 14


 479 0026 8DF80930 		strb	r3, [sp, #9]
 480              	.LVL46:
 200:Middlewares/ST/BlueNRG-MS/hci/controller/bluenrg_gap_aci.c ****   indx++;
 481              		.loc 1 200 0
 482 002a 9DF85830 		ldrb	r3, [sp, #88]	@ zero_extendqisi2
 483              	.LVL47:
 484 002e 8DF80A30 		strb	r3, [sp, #10]
 485              	.LVL48:
 203:Middlewares/ST/BlueNRG-MS/hci/controller/bluenrg_gap_aci.c ****   indx++;
 486              		.loc 1 203 0
 487 0032 8DF80B60 		strb	r6, [sp, #11]
 488              	.LVL49:
 206:Middlewares/ST/BlueNRG-MS/hci/controller/bluenrg_gap_aci.c ****   indx +=  LocalNameLen;
 489              		.loc 1 206 0
 490 0036 01AD     		add	r5, sp, #4
 491 0038 3246     		mov	r2, r6
 492              	.LVL50:
 493 003a 1899     		ldr	r1, [sp, #96]
 494              	.LVL51:
 495 003c 03A8     		add	r0, sp, #12
 496              	.LVL52:
 497 003e FFF7FEFF 		bl	memcpy
 498              	.LVL53:
 207:Middlewares/ST/BlueNRG-MS/hci/controller/bluenrg_gap_aci.c ****   
 499              		.loc 1 207 0
 500 0042 06F10803 		add	r3, r6, #8
 501              	.LVL54:
 209:Middlewares/ST/BlueNRG-MS/hci/controller/bluenrg_gap_aci.c ****   indx++;
 502              		.loc 1 209 0
 503 0046 12AA     		add	r2, sp, #72
 504 0048 52FA83F3 		uxtab	r3, r2, r3
 505              	.LVL55:
 506 004c 03F8444C 		strb	r4, [r3, #-68]
 210:Middlewares/ST/BlueNRG-MS/hci/controller/bluenrg_gap_aci.c **** 
 507              		.loc 1 210 0
 508 0050 0936     		adds	r6, r6, #9
 509              	.LVL56:
 510 0052 F6B2     		uxtb	r6, r6
 511              	.LVL57:
 212:Middlewares/ST/BlueNRG-MS/hci/controller/bluenrg_gap_aci.c ****   indx +=  ServiceUUIDLen;  
 512              		.loc 1 212 0
 513 0054 2246     		mov	r2, r4
 514 0056 1A99     		ldr	r1, [sp, #104]
 515 0058 A819     		adds	r0, r5, r6
 516 005a FFF7FEFF 		bl	memcpy
 517              	.LVL58:
 213:Middlewares/ST/BlueNRG-MS/hci/controller/bluenrg_gap_aci.c **** 
 518              		.loc 1 213 0
 519 005e 3444     		add	r4, r4, r6
 520 0060 E4B2     		uxtb	r4, r4
 521              	.LVL59:
 216:Middlewares/ST/BlueNRG-MS/hci/controller/bluenrg_gap_aci.c ****   indx +=  2;
 522              		.loc 1 216 0
 523 0062 12AB     		add	r3, sp, #72
 524 0064 2344     		add	r3, r3, r4
 525 0066 BDF86C20 		ldrh	r2, [sp, #108]
 526 006a 23F8442C 		strh	r2, [r3, #-68]	@ unaligned
ARM GAS  C:\Users\choee\AppData\Local\Temp\ccvdfN2I.s 			page 15


 217:Middlewares/ST/BlueNRG-MS/hci/controller/bluenrg_gap_aci.c ****   
 527              		.loc 1 217 0
 528 006e A31C     		adds	r3, r4, #2
 529              	.LVL60:
 220:Middlewares/ST/BlueNRG-MS/hci/controller/bluenrg_gap_aci.c ****   indx +=  2;    
 530              		.loc 1 220 0
 531 0070 12AA     		add	r2, sp, #72
 532 0072 52FA83F3 		uxtab	r3, r2, r3
 533              	.LVL61:
 534 0076 BDF87020 		ldrh	r2, [sp, #112]
 535 007a 23F8442C 		strh	r2, [r3, #-68]	@ unaligned
 221:Middlewares/ST/BlueNRG-MS/hci/controller/bluenrg_gap_aci.c **** 
 536              		.loc 1 221 0
 537 007e 0434     		adds	r4, r4, #4
 538              	.LVL62:
 539 0080 E4B2     		uxtb	r4, r4
 540              	.LVL63:
 223:Middlewares/ST/BlueNRG-MS/hci/controller/bluenrg_gap_aci.c ****   rq.ogf = OGF_VENDOR_CMD;
 541              		.loc 1 223 0
 542 0082 0021     		movs	r1, #0
 543 0084 0D91     		str	r1, [sp, #52]
 224:Middlewares/ST/BlueNRG-MS/hci/controller/bluenrg_gap_aci.c ****   rq.ocf = OCF_GAP_SET_DISCOVERABLE;
 544              		.loc 1 224 0
 545 0086 3F23     		movs	r3, #63
 546 0088 ADF83030 		strh	r3, [sp, #48]	@ movhi
 225:Middlewares/ST/BlueNRG-MS/hci/controller/bluenrg_gap_aci.c ****   rq.cparam = (void *)buffer;
 547              		.loc 1 225 0
 548 008c 8323     		movs	r3, #131
 549 008e ADF83230 		strh	r3, [sp, #50]	@ movhi
 226:Middlewares/ST/BlueNRG-MS/hci/controller/bluenrg_gap_aci.c ****   rq.clen = indx;
 550              		.loc 1 226 0
 551 0092 0E95     		str	r5, [sp, #56]
 227:Middlewares/ST/BlueNRG-MS/hci/controller/bluenrg_gap_aci.c ****   rq.rparam = &status;
 552              		.loc 1 227 0
 553 0094 0F94     		str	r4, [sp, #60]
 228:Middlewares/ST/BlueNRG-MS/hci/controller/bluenrg_gap_aci.c ****   rq.rlen = 1;
 554              		.loc 1 228 0
 555 0096 0DF12F03 		add	r3, sp, #47
 556 009a 1093     		str	r3, [sp, #64]
 229:Middlewares/ST/BlueNRG-MS/hci/controller/bluenrg_gap_aci.c **** 
 557              		.loc 1 229 0
 558 009c 0123     		movs	r3, #1
 559 009e 1193     		str	r3, [sp, #68]
 231:Middlewares/ST/BlueNRG-MS/hci/controller/bluenrg_gap_aci.c ****     return BLE_STATUS_TIMEOUT;
 560              		.loc 1 231 0
 561 00a0 0CA8     		add	r0, sp, #48
 562 00a2 FFF7FEFF 		bl	hci_send_req
 563              	.LVL64:
 564 00a6 0028     		cmp	r0, #0
 565 00a8 02DB     		blt	.L22
 234:Middlewares/ST/BlueNRG-MS/hci/controller/bluenrg_gap_aci.c ****     return status;
 566              		.loc 1 234 0
 567 00aa 9DF82F00 		ldrb	r0, [sp, #47]	@ zero_extendqisi2
 568 00ae B2E7     		b	.L20
 569              	.L22:
 232:Middlewares/ST/BlueNRG-MS/hci/controller/bluenrg_gap_aci.c **** 
 570              		.loc 1 232 0
ARM GAS  C:\Users\choee\AppData\Local\Temp\ccvdfN2I.s 			page 16


 571 00b0 FF20     		movs	r0, #255
 572 00b2 B0E7     		b	.L20
 573              		.cfi_endproc
 574              	.LFE134:
 576              		.section	.text.aci_gap_set_direct_connectable_IDB05A1,"ax",%progbits
 577              		.align	1
 578              		.global	aci_gap_set_direct_connectable_IDB05A1
 579              		.syntax unified
 580              		.thumb
 581              		.thumb_func
 582              		.fpu fpv4-sp-d16
 584              	aci_gap_set_direct_connectable_IDB05A1:
 585              	.LFB135:
 240:Middlewares/ST/BlueNRG-MS/hci/controller/bluenrg_gap_aci.c **** 
 241:Middlewares/ST/BlueNRG-MS/hci/controller/bluenrg_gap_aci.c **** tBleStatus aci_gap_set_direct_connectable_IDB05A1(uint8_t own_addr_type, uint8_t directed_adv_type,
 242:Middlewares/ST/BlueNRG-MS/hci/controller/bluenrg_gap_aci.c ****                                                   const uint8_t *initiator_addr, uint16_t adv_inter
 243:Middlewares/ST/BlueNRG-MS/hci/controller/bluenrg_gap_aci.c **** 
 244:Middlewares/ST/BlueNRG-MS/hci/controller/bluenrg_gap_aci.c **** {
 586              		.loc 1 244 0
 587              		.cfi_startproc
 588              		@ args = 8, pretend = 0, frame = 48
 589              		@ frame_needed = 0, uses_anonymous_args = 0
 590              	.LVL65:
 591 0000 00B5     		push	{lr}
 592              	.LCFI18:
 593              		.cfi_def_cfa_offset 4
 594              		.cfi_offset 14, -4
 595 0002 8DB0     		sub	sp, sp, #52
 596              	.LCFI19:
 597              		.cfi_def_cfa_offset 56
 245:Middlewares/ST/BlueNRG-MS/hci/controller/bluenrg_gap_aci.c ****   struct hci_request rq;
 246:Middlewares/ST/BlueNRG-MS/hci/controller/bluenrg_gap_aci.c ****   gap_set_direct_conectable_cp_IDB05A1 cp;
 247:Middlewares/ST/BlueNRG-MS/hci/controller/bluenrg_gap_aci.c ****   uint8_t status;    
 248:Middlewares/ST/BlueNRG-MS/hci/controller/bluenrg_gap_aci.c **** 
 249:Middlewares/ST/BlueNRG-MS/hci/controller/bluenrg_gap_aci.c ****   cp.own_bdaddr_type = own_addr_type;
 598              		.loc 1 249 0
 599 0004 8DF80800 		strb	r0, [sp, #8]
 250:Middlewares/ST/BlueNRG-MS/hci/controller/bluenrg_gap_aci.c ****   cp.directed_adv_type = directed_adv_type;
 600              		.loc 1 250 0
 601 0008 8DF80910 		strb	r1, [sp, #9]
 251:Middlewares/ST/BlueNRG-MS/hci/controller/bluenrg_gap_aci.c ****   cp.adv_interv_min = adv_interv_min;
 602              		.loc 1 251 0
 603 000c BDF83810 		ldrh	r1, [sp, #56]
 604              	.LVL66:
 605 0010 ADF81110 		strh	r1, [sp, #17]	@ unaligned
 252:Middlewares/ST/BlueNRG-MS/hci/controller/bluenrg_gap_aci.c ****   cp.adv_interv_max = adv_interv_max;
 606              		.loc 1 252 0
 607 0014 BDF83C10 		ldrh	r1, [sp, #60]
 608 0018 ADF81310 		strh	r1, [sp, #19]	@ unaligned
 253:Middlewares/ST/BlueNRG-MS/hci/controller/bluenrg_gap_aci.c ****   cp.direct_bdaddr_type = initiator_addr_type;
 609              		.loc 1 253 0
 610 001c 8DF80A20 		strb	r2, [sp, #10]
 254:Middlewares/ST/BlueNRG-MS/hci/controller/bluenrg_gap_aci.c ****   BLUENRG_memcpy(cp.direct_bdaddr, initiator_addr, 6);
 611              		.loc 1 254 0
 612 0020 1A68     		ldr	r2, [r3]	@ unaligned
 613              	.LVL67:
 614 0022 CDF80B20 		str	r2, [sp, #11]	@ unaligned
ARM GAS  C:\Users\choee\AppData\Local\Temp\ccvdfN2I.s 			page 17


 615 0026 9B88     		ldrh	r3, [r3, #4]	@ unaligned
 616              	.LVL68:
 617 0028 ADF80F30 		strh	r3, [sp, #15]	@ unaligned
 255:Middlewares/ST/BlueNRG-MS/hci/controller/bluenrg_gap_aci.c **** 
 256:Middlewares/ST/BlueNRG-MS/hci/controller/bluenrg_gap_aci.c ****   BLUENRG_memset(&rq, 0, sizeof(rq));
 618              		.loc 1 256 0
 619 002c 0021     		movs	r1, #0
 620 002e 0791     		str	r1, [sp, #28]
 257:Middlewares/ST/BlueNRG-MS/hci/controller/bluenrg_gap_aci.c ****   rq.ogf = OGF_VENDOR_CMD;
 621              		.loc 1 257 0
 622 0030 3F23     		movs	r3, #63
 623 0032 ADF81830 		strh	r3, [sp, #24]	@ movhi
 258:Middlewares/ST/BlueNRG-MS/hci/controller/bluenrg_gap_aci.c ****   rq.ocf = OCF_GAP_SET_DIRECT_CONNECTABLE;
 624              		.loc 1 258 0
 625 0036 8423     		movs	r3, #132
 626 0038 ADF81A30 		strh	r3, [sp, #26]	@ movhi
 259:Middlewares/ST/BlueNRG-MS/hci/controller/bluenrg_gap_aci.c ****   rq.cparam = &cp;
 627              		.loc 1 259 0
 628 003c 02AB     		add	r3, sp, #8
 629 003e 0893     		str	r3, [sp, #32]
 260:Middlewares/ST/BlueNRG-MS/hci/controller/bluenrg_gap_aci.c ****   rq.clen = sizeof(cp);
 630              		.loc 1 260 0
 631 0040 0D23     		movs	r3, #13
 632 0042 0993     		str	r3, [sp, #36]
 261:Middlewares/ST/BlueNRG-MS/hci/controller/bluenrg_gap_aci.c ****   rq.rparam = &status;
 633              		.loc 1 261 0
 634 0044 0DF10703 		add	r3, sp, #7
 635 0048 0A93     		str	r3, [sp, #40]
 262:Middlewares/ST/BlueNRG-MS/hci/controller/bluenrg_gap_aci.c ****   rq.rlen = 1;
 636              		.loc 1 262 0
 637 004a 0123     		movs	r3, #1
 638 004c 0B93     		str	r3, [sp, #44]
 263:Middlewares/ST/BlueNRG-MS/hci/controller/bluenrg_gap_aci.c ****     
 264:Middlewares/ST/BlueNRG-MS/hci/controller/bluenrg_gap_aci.c ****   if (hci_send_req(&rq, FALSE) < 0)
 639              		.loc 1 264 0
 640 004e 06A8     		add	r0, sp, #24
 641              	.LVL69:
 642 0050 FFF7FEFF 		bl	hci_send_req
 643              	.LVL70:
 644 0054 0028     		cmp	r0, #0
 645 0056 04DB     		blt	.L27
 265:Middlewares/ST/BlueNRG-MS/hci/controller/bluenrg_gap_aci.c ****     return BLE_STATUS_TIMEOUT;
 266:Middlewares/ST/BlueNRG-MS/hci/controller/bluenrg_gap_aci.c ****     
 267:Middlewares/ST/BlueNRG-MS/hci/controller/bluenrg_gap_aci.c ****   return status;
 646              		.loc 1 267 0
 647 0058 9DF80700 		ldrb	r0, [sp, #7]	@ zero_extendqisi2
 648              	.L26:
 268:Middlewares/ST/BlueNRG-MS/hci/controller/bluenrg_gap_aci.c **** }
 649              		.loc 1 268 0
 650 005c 0DB0     		add	sp, sp, #52
 651              	.LCFI20:
 652              		.cfi_remember_state
 653              		.cfi_def_cfa_offset 4
 654              		@ sp needed
 655 005e 5DF804FB 		ldr	pc, [sp], #4
 656              	.LVL71:
 657              	.L27:
ARM GAS  C:\Users\choee\AppData\Local\Temp\ccvdfN2I.s 			page 18


 658              	.LCFI21:
 659              		.cfi_restore_state
 265:Middlewares/ST/BlueNRG-MS/hci/controller/bluenrg_gap_aci.c ****     return BLE_STATUS_TIMEOUT;
 660              		.loc 1 265 0
 661 0062 FF20     		movs	r0, #255
 662 0064 FAE7     		b	.L26
 663              		.cfi_endproc
 664              	.LFE135:
 666              		.section	.text.aci_gap_set_direct_connectable_IDB04A1,"ax",%progbits
 667              		.align	1
 668              		.global	aci_gap_set_direct_connectable_IDB04A1
 669              		.syntax unified
 670              		.thumb
 671              		.thumb_func
 672              		.fpu fpv4-sp-d16
 674              	aci_gap_set_direct_connectable_IDB04A1:
 675              	.LFB136:
 269:Middlewares/ST/BlueNRG-MS/hci/controller/bluenrg_gap_aci.c **** 
 270:Middlewares/ST/BlueNRG-MS/hci/controller/bluenrg_gap_aci.c **** tBleStatus aci_gap_set_direct_connectable_IDB04A1(uint8_t own_addr_type, uint8_t initiator_addr_typ
 271:Middlewares/ST/BlueNRG-MS/hci/controller/bluenrg_gap_aci.c **** {
 676              		.loc 1 271 0
 677              		.cfi_startproc
 678              		@ args = 0, pretend = 0, frame = 40
 679              		@ frame_needed = 0, uses_anonymous_args = 0
 680              	.LVL72:
 681 0000 00B5     		push	{lr}
 682              	.LCFI22:
 683              		.cfi_def_cfa_offset 4
 684              		.cfi_offset 14, -4
 685 0002 8BB0     		sub	sp, sp, #44
 686              	.LCFI23:
 687              		.cfi_def_cfa_offset 48
 272:Middlewares/ST/BlueNRG-MS/hci/controller/bluenrg_gap_aci.c ****   struct hci_request rq;
 273:Middlewares/ST/BlueNRG-MS/hci/controller/bluenrg_gap_aci.c ****   gap_set_direct_conectable_cp_IDB04A1 cp;
 274:Middlewares/ST/BlueNRG-MS/hci/controller/bluenrg_gap_aci.c ****   uint8_t status;    
 275:Middlewares/ST/BlueNRG-MS/hci/controller/bluenrg_gap_aci.c **** 
 276:Middlewares/ST/BlueNRG-MS/hci/controller/bluenrg_gap_aci.c ****   cp.own_bdaddr_type = own_addr_type; 
 688              		.loc 1 276 0
 689 0004 8DF80800 		strb	r0, [sp, #8]
 277:Middlewares/ST/BlueNRG-MS/hci/controller/bluenrg_gap_aci.c ****   cp.direct_bdaddr_type = initiator_addr_type;
 690              		.loc 1 277 0
 691 0008 8DF80910 		strb	r1, [sp, #9]
 278:Middlewares/ST/BlueNRG-MS/hci/controller/bluenrg_gap_aci.c ****   BLUENRG_memcpy(cp.direct_bdaddr, initiator_addr, 6);
 692              		.loc 1 278 0
 693 000c 1368     		ldr	r3, [r2]	@ unaligned
 694 000e CDF80A30 		str	r3, [sp, #10]	@ unaligned
 695 0012 9388     		ldrh	r3, [r2, #4]	@ unaligned
 696 0014 ADF80E30 		strh	r3, [sp, #14]	@ unaligned
 279:Middlewares/ST/BlueNRG-MS/hci/controller/bluenrg_gap_aci.c **** 
 280:Middlewares/ST/BlueNRG-MS/hci/controller/bluenrg_gap_aci.c ****   BLUENRG_memset(&rq, 0, sizeof(rq));
 697              		.loc 1 280 0
 698 0018 0021     		movs	r1, #0
 699              	.LVL73:
 700 001a 0591     		str	r1, [sp, #20]
 281:Middlewares/ST/BlueNRG-MS/hci/controller/bluenrg_gap_aci.c ****   rq.ogf = OGF_VENDOR_CMD;
 701              		.loc 1 281 0
 702 001c 3F23     		movs	r3, #63
ARM GAS  C:\Users\choee\AppData\Local\Temp\ccvdfN2I.s 			page 19


 703 001e ADF81030 		strh	r3, [sp, #16]	@ movhi
 282:Middlewares/ST/BlueNRG-MS/hci/controller/bluenrg_gap_aci.c ****   rq.ocf = OCF_GAP_SET_DIRECT_CONNECTABLE;
 704              		.loc 1 282 0
 705 0022 8423     		movs	r3, #132
 706 0024 ADF81230 		strh	r3, [sp, #18]	@ movhi
 283:Middlewares/ST/BlueNRG-MS/hci/controller/bluenrg_gap_aci.c ****   rq.cparam = &cp;
 707              		.loc 1 283 0
 708 0028 02AB     		add	r3, sp, #8
 709 002a 0693     		str	r3, [sp, #24]
 284:Middlewares/ST/BlueNRG-MS/hci/controller/bluenrg_gap_aci.c ****   rq.clen = sizeof(cp);
 710              		.loc 1 284 0
 711 002c 0823     		movs	r3, #8
 712 002e 0793     		str	r3, [sp, #28]
 285:Middlewares/ST/BlueNRG-MS/hci/controller/bluenrg_gap_aci.c ****   rq.rparam = &status;
 713              		.loc 1 285 0
 714 0030 0DF10703 		add	r3, sp, #7
 715 0034 0893     		str	r3, [sp, #32]
 286:Middlewares/ST/BlueNRG-MS/hci/controller/bluenrg_gap_aci.c ****   rq.rlen = 1;
 716              		.loc 1 286 0
 717 0036 0123     		movs	r3, #1
 718 0038 0993     		str	r3, [sp, #36]
 287:Middlewares/ST/BlueNRG-MS/hci/controller/bluenrg_gap_aci.c ****     
 288:Middlewares/ST/BlueNRG-MS/hci/controller/bluenrg_gap_aci.c ****   if (hci_send_req(&rq, FALSE) < 0)
 719              		.loc 1 288 0
 720 003a 04A8     		add	r0, sp, #16
 721              	.LVL74:
 722 003c FFF7FEFF 		bl	hci_send_req
 723              	.LVL75:
 724 0040 0028     		cmp	r0, #0
 725 0042 04DB     		blt	.L31
 289:Middlewares/ST/BlueNRG-MS/hci/controller/bluenrg_gap_aci.c ****     return BLE_STATUS_TIMEOUT;
 290:Middlewares/ST/BlueNRG-MS/hci/controller/bluenrg_gap_aci.c ****     
 291:Middlewares/ST/BlueNRG-MS/hci/controller/bluenrg_gap_aci.c ****   return status;
 726              		.loc 1 291 0
 727 0044 9DF80700 		ldrb	r0, [sp, #7]	@ zero_extendqisi2
 728              	.L30:
 292:Middlewares/ST/BlueNRG-MS/hci/controller/bluenrg_gap_aci.c **** }
 729              		.loc 1 292 0
 730 0048 0BB0     		add	sp, sp, #44
 731              	.LCFI24:
 732              		.cfi_remember_state
 733              		.cfi_def_cfa_offset 4
 734              		@ sp needed
 735 004a 5DF804FB 		ldr	pc, [sp], #4
 736              	.L31:
 737              	.LCFI25:
 738              		.cfi_restore_state
 289:Middlewares/ST/BlueNRG-MS/hci/controller/bluenrg_gap_aci.c ****     return BLE_STATUS_TIMEOUT;
 739              		.loc 1 289 0
 740 004e FF20     		movs	r0, #255
 741 0050 FAE7     		b	.L30
 742              		.cfi_endproc
 743              	.LFE136:
 745              		.section	.text.aci_gap_set_io_capability,"ax",%progbits
 746              		.align	1
 747              		.global	aci_gap_set_io_capability
 748              		.syntax unified
ARM GAS  C:\Users\choee\AppData\Local\Temp\ccvdfN2I.s 			page 20


 749              		.thumb
 750              		.thumb_func
 751              		.fpu fpv4-sp-d16
 753              	aci_gap_set_io_capability:
 754              	.LFB137:
 293:Middlewares/ST/BlueNRG-MS/hci/controller/bluenrg_gap_aci.c **** 
 294:Middlewares/ST/BlueNRG-MS/hci/controller/bluenrg_gap_aci.c **** tBleStatus aci_gap_set_io_capability(uint8_t io_capability)
 295:Middlewares/ST/BlueNRG-MS/hci/controller/bluenrg_gap_aci.c **** {
 755              		.loc 1 295 0
 756              		.cfi_startproc
 757              		@ args = 0, pretend = 0, frame = 32
 758              		@ frame_needed = 0, uses_anonymous_args = 0
 759              	.LVL76:
 760 0000 00B5     		push	{lr}
 761              	.LCFI26:
 762              		.cfi_def_cfa_offset 4
 763              		.cfi_offset 14, -4
 764 0002 89B0     		sub	sp, sp, #36
 765              	.LCFI27:
 766              		.cfi_def_cfa_offset 40
 296:Middlewares/ST/BlueNRG-MS/hci/controller/bluenrg_gap_aci.c ****   struct hci_request rq;
 297:Middlewares/ST/BlueNRG-MS/hci/controller/bluenrg_gap_aci.c ****   uint8_t status;
 298:Middlewares/ST/BlueNRG-MS/hci/controller/bluenrg_gap_aci.c ****   gap_set_io_capability_cp cp;
 299:Middlewares/ST/BlueNRG-MS/hci/controller/bluenrg_gap_aci.c ****     
 300:Middlewares/ST/BlueNRG-MS/hci/controller/bluenrg_gap_aci.c ****   cp.io_capability = io_capability;
 767              		.loc 1 300 0
 768 0004 8DF80400 		strb	r0, [sp, #4]
 301:Middlewares/ST/BlueNRG-MS/hci/controller/bluenrg_gap_aci.c **** 
 302:Middlewares/ST/BlueNRG-MS/hci/controller/bluenrg_gap_aci.c ****   BLUENRG_memset(&rq, 0, sizeof(rq));
 769              		.loc 1 302 0
 770 0008 0021     		movs	r1, #0
 771 000a 0391     		str	r1, [sp, #12]
 303:Middlewares/ST/BlueNRG-MS/hci/controller/bluenrg_gap_aci.c ****   rq.ogf = OGF_VENDOR_CMD;
 772              		.loc 1 303 0
 773 000c 3F23     		movs	r3, #63
 774 000e ADF80830 		strh	r3, [sp, #8]	@ movhi
 304:Middlewares/ST/BlueNRG-MS/hci/controller/bluenrg_gap_aci.c ****   rq.ocf = OCF_GAP_SET_IO_CAPABILITY;
 775              		.loc 1 304 0
 776 0012 8523     		movs	r3, #133
 777 0014 ADF80A30 		strh	r3, [sp, #10]	@ movhi
 305:Middlewares/ST/BlueNRG-MS/hci/controller/bluenrg_gap_aci.c ****   rq.cparam = &cp;
 778              		.loc 1 305 0
 779 0018 01AB     		add	r3, sp, #4
 780 001a 0493     		str	r3, [sp, #16]
 306:Middlewares/ST/BlueNRG-MS/hci/controller/bluenrg_gap_aci.c ****   rq.clen = sizeof(cp);
 781              		.loc 1 306 0
 782 001c 0123     		movs	r3, #1
 783 001e 0593     		str	r3, [sp, #20]
 307:Middlewares/ST/BlueNRG-MS/hci/controller/bluenrg_gap_aci.c ****   rq.rparam = &status;
 784              		.loc 1 307 0
 785 0020 0DF10702 		add	r2, sp, #7
 786 0024 0692     		str	r2, [sp, #24]
 308:Middlewares/ST/BlueNRG-MS/hci/controller/bluenrg_gap_aci.c ****   rq.rlen = 1;
 787              		.loc 1 308 0
 788 0026 0793     		str	r3, [sp, #28]
 309:Middlewares/ST/BlueNRG-MS/hci/controller/bluenrg_gap_aci.c ****     
 310:Middlewares/ST/BlueNRG-MS/hci/controller/bluenrg_gap_aci.c ****   if (hci_send_req(&rq, FALSE) < 0)
ARM GAS  C:\Users\choee\AppData\Local\Temp\ccvdfN2I.s 			page 21


 789              		.loc 1 310 0
 790 0028 02A8     		add	r0, sp, #8
 791              	.LVL77:
 792 002a FFF7FEFF 		bl	hci_send_req
 793              	.LVL78:
 794 002e 0028     		cmp	r0, #0
 795 0030 04DB     		blt	.L35
 311:Middlewares/ST/BlueNRG-MS/hci/controller/bluenrg_gap_aci.c ****     return BLE_STATUS_TIMEOUT;
 312:Middlewares/ST/BlueNRG-MS/hci/controller/bluenrg_gap_aci.c ****     
 313:Middlewares/ST/BlueNRG-MS/hci/controller/bluenrg_gap_aci.c ****   return status;
 796              		.loc 1 313 0
 797 0032 9DF80700 		ldrb	r0, [sp, #7]	@ zero_extendqisi2
 798              	.L34:
 314:Middlewares/ST/BlueNRG-MS/hci/controller/bluenrg_gap_aci.c **** }
 799              		.loc 1 314 0
 800 0036 09B0     		add	sp, sp, #36
 801              	.LCFI28:
 802              		.cfi_remember_state
 803              		.cfi_def_cfa_offset 4
 804              		@ sp needed
 805 0038 5DF804FB 		ldr	pc, [sp], #4
 806              	.L35:
 807              	.LCFI29:
 808              		.cfi_restore_state
 311:Middlewares/ST/BlueNRG-MS/hci/controller/bluenrg_gap_aci.c ****     return BLE_STATUS_TIMEOUT;
 809              		.loc 1 311 0
 810 003c FF20     		movs	r0, #255
 811 003e FAE7     		b	.L34
 812              		.cfi_endproc
 813              	.LFE137:
 815              		.section	.text.aci_gap_set_auth_requirement,"ax",%progbits
 816              		.align	1
 817              		.global	aci_gap_set_auth_requirement
 818              		.syntax unified
 819              		.thumb
 820              		.thumb_func
 821              		.fpu fpv4-sp-d16
 823              	aci_gap_set_auth_requirement:
 824              	.LFB138:
 315:Middlewares/ST/BlueNRG-MS/hci/controller/bluenrg_gap_aci.c **** 
 316:Middlewares/ST/BlueNRG-MS/hci/controller/bluenrg_gap_aci.c **** tBleStatus aci_gap_set_auth_requirement(uint8_t mitm_mode,
 317:Middlewares/ST/BlueNRG-MS/hci/controller/bluenrg_gap_aci.c ****                                         uint8_t oob_enable,
 318:Middlewares/ST/BlueNRG-MS/hci/controller/bluenrg_gap_aci.c ****                                         uint8_t oob_data[16],
 319:Middlewares/ST/BlueNRG-MS/hci/controller/bluenrg_gap_aci.c ****                                         uint8_t min_encryption_key_size,
 320:Middlewares/ST/BlueNRG-MS/hci/controller/bluenrg_gap_aci.c ****                                         uint8_t max_encryption_key_size,
 321:Middlewares/ST/BlueNRG-MS/hci/controller/bluenrg_gap_aci.c ****                                         uint8_t use_fixed_pin,
 322:Middlewares/ST/BlueNRG-MS/hci/controller/bluenrg_gap_aci.c ****                                         uint32_t fixed_pin,
 323:Middlewares/ST/BlueNRG-MS/hci/controller/bluenrg_gap_aci.c ****                                         uint8_t bonding_mode)
 324:Middlewares/ST/BlueNRG-MS/hci/controller/bluenrg_gap_aci.c **** {
 825              		.loc 1 324 0
 826              		.cfi_startproc
 827              		@ args = 16, pretend = 0, frame = 56
 828              		@ frame_needed = 0, uses_anonymous_args = 0
 829              	.LVL79:
 830 0000 10B5     		push	{r4, lr}
 831              	.LCFI30:
 832              		.cfi_def_cfa_offset 8
ARM GAS  C:\Users\choee\AppData\Local\Temp\ccvdfN2I.s 			page 22


 833              		.cfi_offset 4, -8
 834              		.cfi_offset 14, -4
 835 0002 8EB0     		sub	sp, sp, #56
 836              	.LCFI31:
 837              		.cfi_def_cfa_offset 64
 325:Middlewares/ST/BlueNRG-MS/hci/controller/bluenrg_gap_aci.c ****   struct hci_request rq;
 326:Middlewares/ST/BlueNRG-MS/hci/controller/bluenrg_gap_aci.c ****   gap_set_auth_requirement_cp cp;    
 327:Middlewares/ST/BlueNRG-MS/hci/controller/bluenrg_gap_aci.c ****   uint8_t status;
 328:Middlewares/ST/BlueNRG-MS/hci/controller/bluenrg_gap_aci.c ****     
 329:Middlewares/ST/BlueNRG-MS/hci/controller/bluenrg_gap_aci.c ****   cp.mitm_mode = mitm_mode;
 838              		.loc 1 329 0
 839 0004 8DF80400 		strb	r0, [sp, #4]
 330:Middlewares/ST/BlueNRG-MS/hci/controller/bluenrg_gap_aci.c ****   cp.oob_enable = oob_enable;
 840              		.loc 1 330 0
 841 0008 8DF80510 		strb	r1, [sp, #5]
 331:Middlewares/ST/BlueNRG-MS/hci/controller/bluenrg_gap_aci.c ****   BLUENRG_memcpy(cp.oob_data, oob_data, 16);
 842              		.loc 1 331 0
 843 000c 1468     		ldr	r4, [r2]	@ unaligned
 844 000e 5068     		ldr	r0, [r2, #4]	@ unaligned
 845              	.LVL80:
 846 0010 9168     		ldr	r1, [r2, #8]	@ unaligned
 847              	.LVL81:
 848 0012 D268     		ldr	r2, [r2, #12]	@ unaligned
 849              	.LVL82:
 850 0014 CDF80640 		str	r4, [sp, #6]	@ unaligned
 851 0018 CDF80A00 		str	r0, [sp, #10]	@ unaligned
 852 001c CDF80E10 		str	r1, [sp, #14]	@ unaligned
 853 0020 CDF81220 		str	r2, [sp, #18]	@ unaligned
 332:Middlewares/ST/BlueNRG-MS/hci/controller/bluenrg_gap_aci.c ****   cp.min_encryption_key_size = min_encryption_key_size;
 854              		.loc 1 332 0
 855 0024 8DF81630 		strb	r3, [sp, #22]
 333:Middlewares/ST/BlueNRG-MS/hci/controller/bluenrg_gap_aci.c ****   cp.max_encryption_key_size = max_encryption_key_size;
 856              		.loc 1 333 0
 857 0028 9DF84030 		ldrb	r3, [sp, #64]	@ zero_extendqisi2
 858              	.LVL83:
 859 002c 8DF81730 		strb	r3, [sp, #23]
 334:Middlewares/ST/BlueNRG-MS/hci/controller/bluenrg_gap_aci.c ****   cp.use_fixed_pin = use_fixed_pin;
 860              		.loc 1 334 0
 861 0030 9DF84430 		ldrb	r3, [sp, #68]	@ zero_extendqisi2
 862 0034 8DF81830 		strb	r3, [sp, #24]
 335:Middlewares/ST/BlueNRG-MS/hci/controller/bluenrg_gap_aci.c ****   cp.fixed_pin = htobl(fixed_pin);
 863              		.loc 1 335 0
 864 0038 129B     		ldr	r3, [sp, #72]
 865 003a CDF81930 		str	r3, [sp, #25]	@ unaligned
 336:Middlewares/ST/BlueNRG-MS/hci/controller/bluenrg_gap_aci.c ****   cp.bonding_mode = bonding_mode;
 866              		.loc 1 336 0
 867 003e 9DF84C30 		ldrb	r3, [sp, #76]	@ zero_extendqisi2
 868 0042 8DF81D30 		strb	r3, [sp, #29]
 337:Middlewares/ST/BlueNRG-MS/hci/controller/bluenrg_gap_aci.c **** 
 338:Middlewares/ST/BlueNRG-MS/hci/controller/bluenrg_gap_aci.c ****   BLUENRG_memset(&rq, 0, sizeof(rq));
 869              		.loc 1 338 0
 870 0046 0021     		movs	r1, #0
 871 0048 0991     		str	r1, [sp, #36]
 339:Middlewares/ST/BlueNRG-MS/hci/controller/bluenrg_gap_aci.c ****   rq.ogf = OGF_VENDOR_CMD;
 872              		.loc 1 339 0
 873 004a 3F23     		movs	r3, #63
 874 004c ADF82030 		strh	r3, [sp, #32]	@ movhi
ARM GAS  C:\Users\choee\AppData\Local\Temp\ccvdfN2I.s 			page 23


 340:Middlewares/ST/BlueNRG-MS/hci/controller/bluenrg_gap_aci.c ****   rq.ocf = OCF_GAP_SET_AUTH_REQUIREMENT;
 875              		.loc 1 340 0
 876 0050 8623     		movs	r3, #134
 877 0052 ADF82230 		strh	r3, [sp, #34]	@ movhi
 341:Middlewares/ST/BlueNRG-MS/hci/controller/bluenrg_gap_aci.c ****   rq.cparam = &cp;
 878              		.loc 1 341 0
 879 0056 01AB     		add	r3, sp, #4
 880              	.LVL84:
 881 0058 0A93     		str	r3, [sp, #40]
 342:Middlewares/ST/BlueNRG-MS/hci/controller/bluenrg_gap_aci.c ****   rq.clen = sizeof(cp);
 882              		.loc 1 342 0
 883 005a 1A23     		movs	r3, #26
 884              	.LVL85:
 885 005c 0B93     		str	r3, [sp, #44]
 343:Middlewares/ST/BlueNRG-MS/hci/controller/bluenrg_gap_aci.c ****   rq.rparam = &status;
 886              		.loc 1 343 0
 887 005e 0DF10303 		add	r3, sp, #3
 888 0062 0C93     		str	r3, [sp, #48]
 344:Middlewares/ST/BlueNRG-MS/hci/controller/bluenrg_gap_aci.c ****   rq.rlen = 1;
 889              		.loc 1 344 0
 890 0064 0123     		movs	r3, #1
 891 0066 0D93     		str	r3, [sp, #52]
 345:Middlewares/ST/BlueNRG-MS/hci/controller/bluenrg_gap_aci.c **** 
 346:Middlewares/ST/BlueNRG-MS/hci/controller/bluenrg_gap_aci.c ****   if (hci_send_req(&rq, FALSE) < 0)
 892              		.loc 1 346 0
 893 0068 08A8     		add	r0, sp, #32
 894 006a FFF7FEFF 		bl	hci_send_req
 895              	.LVL86:
 896 006e 0028     		cmp	r0, #0
 897 0070 03DB     		blt	.L39
 347:Middlewares/ST/BlueNRG-MS/hci/controller/bluenrg_gap_aci.c ****     return BLE_STATUS_TIMEOUT;
 348:Middlewares/ST/BlueNRG-MS/hci/controller/bluenrg_gap_aci.c **** 
 349:Middlewares/ST/BlueNRG-MS/hci/controller/bluenrg_gap_aci.c ****   if (status) {
 898              		.loc 1 349 0
 899 0072 9DF80300 		ldrb	r0, [sp, #3]	@ zero_extendqisi2
 900              	.L38:
 350:Middlewares/ST/BlueNRG-MS/hci/controller/bluenrg_gap_aci.c ****     return status;
 351:Middlewares/ST/BlueNRG-MS/hci/controller/bluenrg_gap_aci.c ****   }
 352:Middlewares/ST/BlueNRG-MS/hci/controller/bluenrg_gap_aci.c ****     
 353:Middlewares/ST/BlueNRG-MS/hci/controller/bluenrg_gap_aci.c ****   return 0;
 354:Middlewares/ST/BlueNRG-MS/hci/controller/bluenrg_gap_aci.c **** }
 901              		.loc 1 354 0
 902 0076 0EB0     		add	sp, sp, #56
 903              	.LCFI32:
 904              		.cfi_remember_state
 905              		.cfi_def_cfa_offset 8
 906              		@ sp needed
 907 0078 10BD     		pop	{r4, pc}
 908              	.LVL87:
 909              	.L39:
 910              	.LCFI33:
 911              		.cfi_restore_state
 347:Middlewares/ST/BlueNRG-MS/hci/controller/bluenrg_gap_aci.c ****     return BLE_STATUS_TIMEOUT;
 912              		.loc 1 347 0
 913 007a FF20     		movs	r0, #255
 914 007c FBE7     		b	.L38
 915              		.cfi_endproc
ARM GAS  C:\Users\choee\AppData\Local\Temp\ccvdfN2I.s 			page 24


 916              	.LFE138:
 918              		.section	.text.aci_gap_set_author_requirement,"ax",%progbits
 919              		.align	1
 920              		.global	aci_gap_set_author_requirement
 921              		.syntax unified
 922              		.thumb
 923              		.thumb_func
 924              		.fpu fpv4-sp-d16
 926              	aci_gap_set_author_requirement:
 927              	.LFB139:
 355:Middlewares/ST/BlueNRG-MS/hci/controller/bluenrg_gap_aci.c **** 
 356:Middlewares/ST/BlueNRG-MS/hci/controller/bluenrg_gap_aci.c **** tBleStatus aci_gap_set_author_requirement(uint16_t conn_handle, uint8_t authorization_enable)
 357:Middlewares/ST/BlueNRG-MS/hci/controller/bluenrg_gap_aci.c **** {
 928              		.loc 1 357 0
 929              		.cfi_startproc
 930              		@ args = 0, pretend = 0, frame = 32
 931              		@ frame_needed = 0, uses_anonymous_args = 0
 932              	.LVL88:
 933 0000 00B5     		push	{lr}
 934              	.LCFI34:
 935              		.cfi_def_cfa_offset 4
 936              		.cfi_offset 14, -4
 937 0002 89B0     		sub	sp, sp, #36
 938              	.LCFI35:
 939              		.cfi_def_cfa_offset 40
 358:Middlewares/ST/BlueNRG-MS/hci/controller/bluenrg_gap_aci.c ****   struct hci_request rq;
 359:Middlewares/ST/BlueNRG-MS/hci/controller/bluenrg_gap_aci.c ****   gap_set_author_requirement_cp cp;    
 360:Middlewares/ST/BlueNRG-MS/hci/controller/bluenrg_gap_aci.c ****   uint8_t status;
 361:Middlewares/ST/BlueNRG-MS/hci/controller/bluenrg_gap_aci.c ****     
 362:Middlewares/ST/BlueNRG-MS/hci/controller/bluenrg_gap_aci.c ****   cp.conn_handle = htobs(conn_handle);
 940              		.loc 1 362 0
 941 0004 ADF80400 		strh	r0, [sp, #4]	@ movhi
 363:Middlewares/ST/BlueNRG-MS/hci/controller/bluenrg_gap_aci.c ****   cp.authorization_enable = authorization_enable;
 942              		.loc 1 363 0
 943 0008 8DF80610 		strb	r1, [sp, #6]
 364:Middlewares/ST/BlueNRG-MS/hci/controller/bluenrg_gap_aci.c **** 
 365:Middlewares/ST/BlueNRG-MS/hci/controller/bluenrg_gap_aci.c ****   BLUENRG_memset(&rq, 0, sizeof(rq));
 944              		.loc 1 365 0
 945 000c 0021     		movs	r1, #0
 946              	.LVL89:
 947 000e 0391     		str	r1, [sp, #12]
 366:Middlewares/ST/BlueNRG-MS/hci/controller/bluenrg_gap_aci.c ****   rq.ogf = OGF_VENDOR_CMD;
 948              		.loc 1 366 0
 949 0010 3F23     		movs	r3, #63
 950 0012 ADF80830 		strh	r3, [sp, #8]	@ movhi
 367:Middlewares/ST/BlueNRG-MS/hci/controller/bluenrg_gap_aci.c ****   rq.ocf = OCF_GAP_SET_AUTHOR_REQUIREMENT;
 951              		.loc 1 367 0
 952 0016 8723     		movs	r3, #135
 953 0018 ADF80A30 		strh	r3, [sp, #10]	@ movhi
 368:Middlewares/ST/BlueNRG-MS/hci/controller/bluenrg_gap_aci.c ****   rq.cparam = &cp;
 954              		.loc 1 368 0
 955 001c 01AB     		add	r3, sp, #4
 956 001e 0493     		str	r3, [sp, #16]
 369:Middlewares/ST/BlueNRG-MS/hci/controller/bluenrg_gap_aci.c ****   rq.clen = sizeof(cp);
 957              		.loc 1 369 0
 958 0020 0323     		movs	r3, #3
 959 0022 0593     		str	r3, [sp, #20]
ARM GAS  C:\Users\choee\AppData\Local\Temp\ccvdfN2I.s 			page 25


 370:Middlewares/ST/BlueNRG-MS/hci/controller/bluenrg_gap_aci.c ****   rq.rparam = &status;
 960              		.loc 1 370 0
 961 0024 6B44     		add	r3, sp, r3
 962 0026 0693     		str	r3, [sp, #24]
 371:Middlewares/ST/BlueNRG-MS/hci/controller/bluenrg_gap_aci.c ****   rq.rlen = 1;
 963              		.loc 1 371 0
 964 0028 0123     		movs	r3, #1
 965 002a 0793     		str	r3, [sp, #28]
 372:Middlewares/ST/BlueNRG-MS/hci/controller/bluenrg_gap_aci.c **** 
 373:Middlewares/ST/BlueNRG-MS/hci/controller/bluenrg_gap_aci.c ****   if (hci_send_req(&rq, FALSE) < 0)
 966              		.loc 1 373 0
 967 002c 02A8     		add	r0, sp, #8
 968              	.LVL90:
 969 002e FFF7FEFF 		bl	hci_send_req
 970              	.LVL91:
 971 0032 0028     		cmp	r0, #0
 972 0034 04DB     		blt	.L43
 374:Middlewares/ST/BlueNRG-MS/hci/controller/bluenrg_gap_aci.c ****     return BLE_STATUS_TIMEOUT;
 375:Middlewares/ST/BlueNRG-MS/hci/controller/bluenrg_gap_aci.c ****   
 376:Middlewares/ST/BlueNRG-MS/hci/controller/bluenrg_gap_aci.c ****   return status;
 973              		.loc 1 376 0
 974 0036 9DF80300 		ldrb	r0, [sp, #3]	@ zero_extendqisi2
 975              	.L42:
 377:Middlewares/ST/BlueNRG-MS/hci/controller/bluenrg_gap_aci.c **** }
 976              		.loc 1 377 0
 977 003a 09B0     		add	sp, sp, #36
 978              	.LCFI36:
 979              		.cfi_remember_state
 980              		.cfi_def_cfa_offset 4
 981              		@ sp needed
 982 003c 5DF804FB 		ldr	pc, [sp], #4
 983              	.L43:
 984              	.LCFI37:
 985              		.cfi_restore_state
 374:Middlewares/ST/BlueNRG-MS/hci/controller/bluenrg_gap_aci.c ****     return BLE_STATUS_TIMEOUT;
 986              		.loc 1 374 0
 987 0040 FF20     		movs	r0, #255
 988 0042 FAE7     		b	.L42
 989              		.cfi_endproc
 990              	.LFE139:
 992              		.section	.text.aci_gap_pass_key_response,"ax",%progbits
 993              		.align	1
 994              		.global	aci_gap_pass_key_response
 995              		.syntax unified
 996              		.thumb
 997              		.thumb_func
 998              		.fpu fpv4-sp-d16
 1000              	aci_gap_pass_key_response:
 1001              	.LFB140:
 378:Middlewares/ST/BlueNRG-MS/hci/controller/bluenrg_gap_aci.c **** 
 379:Middlewares/ST/BlueNRG-MS/hci/controller/bluenrg_gap_aci.c **** tBleStatus aci_gap_pass_key_response(uint16_t conn_handle, uint32_t passkey)
 380:Middlewares/ST/BlueNRG-MS/hci/controller/bluenrg_gap_aci.c **** {
 1002              		.loc 1 380 0
 1003              		.cfi_startproc
 1004              		@ args = 0, pretend = 0, frame = 40
 1005              		@ frame_needed = 0, uses_anonymous_args = 0
 1006              	.LVL92:
ARM GAS  C:\Users\choee\AppData\Local\Temp\ccvdfN2I.s 			page 26


 1007 0000 00B5     		push	{lr}
 1008              	.LCFI38:
 1009              		.cfi_def_cfa_offset 4
 1010              		.cfi_offset 14, -4
 1011 0002 8BB0     		sub	sp, sp, #44
 1012              	.LCFI39:
 1013              		.cfi_def_cfa_offset 48
 381:Middlewares/ST/BlueNRG-MS/hci/controller/bluenrg_gap_aci.c ****   struct hci_request rq;
 382:Middlewares/ST/BlueNRG-MS/hci/controller/bluenrg_gap_aci.c ****   gap_passkey_response_cp cp;    
 383:Middlewares/ST/BlueNRG-MS/hci/controller/bluenrg_gap_aci.c ****   uint8_t status;
 384:Middlewares/ST/BlueNRG-MS/hci/controller/bluenrg_gap_aci.c ****     
 385:Middlewares/ST/BlueNRG-MS/hci/controller/bluenrg_gap_aci.c ****   cp.conn_handle = htobs(conn_handle);
 1014              		.loc 1 385 0
 1015 0004 ADF80800 		strh	r0, [sp, #8]	@ movhi
 386:Middlewares/ST/BlueNRG-MS/hci/controller/bluenrg_gap_aci.c ****   cp.passkey = htobl(passkey);
 1016              		.loc 1 386 0
 1017 0008 CDF80A10 		str	r1, [sp, #10]	@ unaligned
 387:Middlewares/ST/BlueNRG-MS/hci/controller/bluenrg_gap_aci.c **** 
 388:Middlewares/ST/BlueNRG-MS/hci/controller/bluenrg_gap_aci.c ****   BLUENRG_memset(&rq, 0, sizeof(rq));
 389:Middlewares/ST/BlueNRG-MS/hci/controller/bluenrg_gap_aci.c ****   rq.ogf = OGF_VENDOR_CMD;
 1018              		.loc 1 389 0
 1019 000c 3F23     		movs	r3, #63
 1020 000e ADF81030 		strh	r3, [sp, #16]	@ movhi
 390:Middlewares/ST/BlueNRG-MS/hci/controller/bluenrg_gap_aci.c ****   rq.ocf = OCF_GAP_PASSKEY_RESPONSE;
 1021              		.loc 1 390 0
 1022 0012 8823     		movs	r3, #136
 1023 0014 ADF81230 		strh	r3, [sp, #18]	@ movhi
 391:Middlewares/ST/BlueNRG-MS/hci/controller/bluenrg_gap_aci.c ****   rq.cparam = &cp;
 1024              		.loc 1 391 0
 1025 0018 02AB     		add	r3, sp, #8
 1026 001a 0693     		str	r3, [sp, #24]
 392:Middlewares/ST/BlueNRG-MS/hci/controller/bluenrg_gap_aci.c ****   rq.clen = sizeof(cp);
 1027              		.loc 1 392 0
 1028 001c 0623     		movs	r3, #6
 1029 001e 0793     		str	r3, [sp, #28]
 393:Middlewares/ST/BlueNRG-MS/hci/controller/bluenrg_gap_aci.c ****   rq.event = EVT_CMD_STATUS;
 1030              		.loc 1 393 0
 1031 0020 0F23     		movs	r3, #15
 1032 0022 0593     		str	r3, [sp, #20]
 394:Middlewares/ST/BlueNRG-MS/hci/controller/bluenrg_gap_aci.c ****   rq.rparam = &status;
 1033              		.loc 1 394 0
 1034 0024 0DF10703 		add	r3, sp, #7
 1035 0028 0893     		str	r3, [sp, #32]
 395:Middlewares/ST/BlueNRG-MS/hci/controller/bluenrg_gap_aci.c ****   rq.rlen = 1;
 1036              		.loc 1 395 0
 1037 002a 0123     		movs	r3, #1
 1038 002c 0993     		str	r3, [sp, #36]
 396:Middlewares/ST/BlueNRG-MS/hci/controller/bluenrg_gap_aci.c ****   
 397:Middlewares/ST/BlueNRG-MS/hci/controller/bluenrg_gap_aci.c ****   if (hci_send_req(&rq, FALSE) < 0)
 1039              		.loc 1 397 0
 1040 002e 0021     		movs	r1, #0
 1041              	.LVL93:
 1042 0030 04A8     		add	r0, sp, #16
 1043              	.LVL94:
 1044 0032 FFF7FEFF 		bl	hci_send_req
 1045              	.LVL95:
 1046 0036 0028     		cmp	r0, #0
ARM GAS  C:\Users\choee\AppData\Local\Temp\ccvdfN2I.s 			page 27


 1047 0038 04DB     		blt	.L47
 398:Middlewares/ST/BlueNRG-MS/hci/controller/bluenrg_gap_aci.c ****     return BLE_STATUS_TIMEOUT;
 399:Middlewares/ST/BlueNRG-MS/hci/controller/bluenrg_gap_aci.c ****   
 400:Middlewares/ST/BlueNRG-MS/hci/controller/bluenrg_gap_aci.c ****   return status;
 1048              		.loc 1 400 0
 1049 003a 9DF80700 		ldrb	r0, [sp, #7]	@ zero_extendqisi2
 1050              	.L46:
 401:Middlewares/ST/BlueNRG-MS/hci/controller/bluenrg_gap_aci.c **** }
 1051              		.loc 1 401 0
 1052 003e 0BB0     		add	sp, sp, #44
 1053              	.LCFI40:
 1054              		.cfi_remember_state
 1055              		.cfi_def_cfa_offset 4
 1056              		@ sp needed
 1057 0040 5DF804FB 		ldr	pc, [sp], #4
 1058              	.L47:
 1059              	.LCFI41:
 1060              		.cfi_restore_state
 398:Middlewares/ST/BlueNRG-MS/hci/controller/bluenrg_gap_aci.c ****     return BLE_STATUS_TIMEOUT;
 1061              		.loc 1 398 0
 1062 0044 FF20     		movs	r0, #255
 1063 0046 FAE7     		b	.L46
 1064              		.cfi_endproc
 1065              	.LFE140:
 1067              		.section	.text.aci_gap_authorization_response,"ax",%progbits
 1068              		.align	1
 1069              		.global	aci_gap_authorization_response
 1070              		.syntax unified
 1071              		.thumb
 1072              		.thumb_func
 1073              		.fpu fpv4-sp-d16
 1075              	aci_gap_authorization_response:
 1076              	.LFB141:
 402:Middlewares/ST/BlueNRG-MS/hci/controller/bluenrg_gap_aci.c **** 
 403:Middlewares/ST/BlueNRG-MS/hci/controller/bluenrg_gap_aci.c **** tBleStatus aci_gap_authorization_response(uint16_t conn_handle, uint8_t authorize)
 404:Middlewares/ST/BlueNRG-MS/hci/controller/bluenrg_gap_aci.c **** {
 1077              		.loc 1 404 0
 1078              		.cfi_startproc
 1079              		@ args = 0, pretend = 0, frame = 32
 1080              		@ frame_needed = 0, uses_anonymous_args = 0
 1081              	.LVL96:
 1082 0000 00B5     		push	{lr}
 1083              	.LCFI42:
 1084              		.cfi_def_cfa_offset 4
 1085              		.cfi_offset 14, -4
 1086 0002 89B0     		sub	sp, sp, #36
 1087              	.LCFI43:
 1088              		.cfi_def_cfa_offset 40
 405:Middlewares/ST/BlueNRG-MS/hci/controller/bluenrg_gap_aci.c ****   struct hci_request rq;
 406:Middlewares/ST/BlueNRG-MS/hci/controller/bluenrg_gap_aci.c ****   gap_authorization_response_cp cp;    
 407:Middlewares/ST/BlueNRG-MS/hci/controller/bluenrg_gap_aci.c ****   uint8_t status;
 408:Middlewares/ST/BlueNRG-MS/hci/controller/bluenrg_gap_aci.c ****     
 409:Middlewares/ST/BlueNRG-MS/hci/controller/bluenrg_gap_aci.c ****   cp.conn_handle = htobs(conn_handle);
 1089              		.loc 1 409 0
 1090 0004 ADF80400 		strh	r0, [sp, #4]	@ movhi
 410:Middlewares/ST/BlueNRG-MS/hci/controller/bluenrg_gap_aci.c ****   cp.authorize = authorize;
 1091              		.loc 1 410 0
ARM GAS  C:\Users\choee\AppData\Local\Temp\ccvdfN2I.s 			page 28


 1092 0008 8DF80610 		strb	r1, [sp, #6]
 411:Middlewares/ST/BlueNRG-MS/hci/controller/bluenrg_gap_aci.c **** 
 412:Middlewares/ST/BlueNRG-MS/hci/controller/bluenrg_gap_aci.c ****   BLUENRG_memset(&rq, 0, sizeof(rq));
 1093              		.loc 1 412 0
 1094 000c 0021     		movs	r1, #0
 1095              	.LVL97:
 1096 000e 0391     		str	r1, [sp, #12]
 413:Middlewares/ST/BlueNRG-MS/hci/controller/bluenrg_gap_aci.c ****   rq.ogf = OGF_VENDOR_CMD;
 1097              		.loc 1 413 0
 1098 0010 3F23     		movs	r3, #63
 1099 0012 ADF80830 		strh	r3, [sp, #8]	@ movhi
 414:Middlewares/ST/BlueNRG-MS/hci/controller/bluenrg_gap_aci.c ****   rq.ocf = OCF_GAP_AUTHORIZATION_RESPONSE;
 1100              		.loc 1 414 0
 1101 0016 8923     		movs	r3, #137
 1102 0018 ADF80A30 		strh	r3, [sp, #10]	@ movhi
 415:Middlewares/ST/BlueNRG-MS/hci/controller/bluenrg_gap_aci.c ****   rq.cparam = &cp;
 1103              		.loc 1 415 0
 1104 001c 01AB     		add	r3, sp, #4
 1105 001e 0493     		str	r3, [sp, #16]
 416:Middlewares/ST/BlueNRG-MS/hci/controller/bluenrg_gap_aci.c ****   rq.clen = sizeof(cp);
 1106              		.loc 1 416 0
 1107 0020 0323     		movs	r3, #3
 1108 0022 0593     		str	r3, [sp, #20]
 417:Middlewares/ST/BlueNRG-MS/hci/controller/bluenrg_gap_aci.c ****   rq.rparam = &status;
 1109              		.loc 1 417 0
 1110 0024 6B44     		add	r3, sp, r3
 1111 0026 0693     		str	r3, [sp, #24]
 418:Middlewares/ST/BlueNRG-MS/hci/controller/bluenrg_gap_aci.c ****   rq.rlen = 1;
 1112              		.loc 1 418 0
 1113 0028 0123     		movs	r3, #1
 1114 002a 0793     		str	r3, [sp, #28]
 419:Middlewares/ST/BlueNRG-MS/hci/controller/bluenrg_gap_aci.c ****   
 420:Middlewares/ST/BlueNRG-MS/hci/controller/bluenrg_gap_aci.c ****   if (hci_send_req(&rq, FALSE) < 0)
 1115              		.loc 1 420 0
 1116 002c 02A8     		add	r0, sp, #8
 1117              	.LVL98:
 1118 002e FFF7FEFF 		bl	hci_send_req
 1119              	.LVL99:
 1120 0032 0028     		cmp	r0, #0
 1121 0034 04DB     		blt	.L51
 421:Middlewares/ST/BlueNRG-MS/hci/controller/bluenrg_gap_aci.c ****     return BLE_STATUS_TIMEOUT;
 422:Middlewares/ST/BlueNRG-MS/hci/controller/bluenrg_gap_aci.c ****   
 423:Middlewares/ST/BlueNRG-MS/hci/controller/bluenrg_gap_aci.c ****   return status;
 1122              		.loc 1 423 0
 1123 0036 9DF80300 		ldrb	r0, [sp, #3]	@ zero_extendqisi2
 1124              	.L50:
 424:Middlewares/ST/BlueNRG-MS/hci/controller/bluenrg_gap_aci.c **** }
 1125              		.loc 1 424 0
 1126 003a 09B0     		add	sp, sp, #36
 1127              	.LCFI44:
 1128              		.cfi_remember_state
 1129              		.cfi_def_cfa_offset 4
 1130              		@ sp needed
 1131 003c 5DF804FB 		ldr	pc, [sp], #4
 1132              	.L51:
 1133              	.LCFI45:
 1134              		.cfi_restore_state
ARM GAS  C:\Users\choee\AppData\Local\Temp\ccvdfN2I.s 			page 29


 421:Middlewares/ST/BlueNRG-MS/hci/controller/bluenrg_gap_aci.c ****     return BLE_STATUS_TIMEOUT;
 1135              		.loc 1 421 0
 1136 0040 FF20     		movs	r0, #255
 1137 0042 FAE7     		b	.L50
 1138              		.cfi_endproc
 1139              	.LFE141:
 1141              		.section	.text.aci_gap_set_non_connectable_IDB05A1,"ax",%progbits
 1142              		.align	1
 1143              		.global	aci_gap_set_non_connectable_IDB05A1
 1144              		.syntax unified
 1145              		.thumb
 1146              		.thumb_func
 1147              		.fpu fpv4-sp-d16
 1149              	aci_gap_set_non_connectable_IDB05A1:
 1150              	.LFB142:
 425:Middlewares/ST/BlueNRG-MS/hci/controller/bluenrg_gap_aci.c **** 
 426:Middlewares/ST/BlueNRG-MS/hci/controller/bluenrg_gap_aci.c **** tBleStatus aci_gap_set_non_connectable_IDB05A1(uint8_t adv_type, uint8_t own_address_type)
 427:Middlewares/ST/BlueNRG-MS/hci/controller/bluenrg_gap_aci.c **** {
 1151              		.loc 1 427 0
 1152              		.cfi_startproc
 1153              		@ args = 0, pretend = 0, frame = 32
 1154              		@ frame_needed = 0, uses_anonymous_args = 0
 1155              	.LVL100:
 1156 0000 00B5     		push	{lr}
 1157              	.LCFI46:
 1158              		.cfi_def_cfa_offset 4
 1159              		.cfi_offset 14, -4
 1160 0002 89B0     		sub	sp, sp, #36
 1161              	.LCFI47:
 1162              		.cfi_def_cfa_offset 40
 428:Middlewares/ST/BlueNRG-MS/hci/controller/bluenrg_gap_aci.c ****   struct hci_request rq;
 429:Middlewares/ST/BlueNRG-MS/hci/controller/bluenrg_gap_aci.c ****   gap_set_non_connectable_cp_IDB05A1 cp;    
 430:Middlewares/ST/BlueNRG-MS/hci/controller/bluenrg_gap_aci.c ****   uint8_t status;
 431:Middlewares/ST/BlueNRG-MS/hci/controller/bluenrg_gap_aci.c ****     
 432:Middlewares/ST/BlueNRG-MS/hci/controller/bluenrg_gap_aci.c ****   cp.advertising_event_type = adv_type;  
 1163              		.loc 1 432 0
 1164 0004 8DF80400 		strb	r0, [sp, #4]
 433:Middlewares/ST/BlueNRG-MS/hci/controller/bluenrg_gap_aci.c ****   cp.own_address_type = own_address_type;
 1165              		.loc 1 433 0
 1166 0008 8DF80510 		strb	r1, [sp, #5]
 434:Middlewares/ST/BlueNRG-MS/hci/controller/bluenrg_gap_aci.c **** 
 435:Middlewares/ST/BlueNRG-MS/hci/controller/bluenrg_gap_aci.c ****   BLUENRG_memset(&rq, 0, sizeof(rq));
 1167              		.loc 1 435 0
 1168 000c 0021     		movs	r1, #0
 1169              	.LVL101:
 1170 000e 0391     		str	r1, [sp, #12]
 436:Middlewares/ST/BlueNRG-MS/hci/controller/bluenrg_gap_aci.c ****   rq.ogf = OGF_VENDOR_CMD;
 1171              		.loc 1 436 0
 1172 0010 3F23     		movs	r3, #63
 1173 0012 ADF80830 		strh	r3, [sp, #8]	@ movhi
 437:Middlewares/ST/BlueNRG-MS/hci/controller/bluenrg_gap_aci.c ****   rq.ocf = OCF_GAP_SET_NON_CONNECTABLE;
 1174              		.loc 1 437 0
 1175 0016 8B23     		movs	r3, #139
 1176 0018 ADF80A30 		strh	r3, [sp, #10]	@ movhi
 438:Middlewares/ST/BlueNRG-MS/hci/controller/bluenrg_gap_aci.c ****   rq.cparam = &cp;
 1177              		.loc 1 438 0
 1178 001c 01AB     		add	r3, sp, #4
ARM GAS  C:\Users\choee\AppData\Local\Temp\ccvdfN2I.s 			page 30


 1179 001e 0493     		str	r3, [sp, #16]
 439:Middlewares/ST/BlueNRG-MS/hci/controller/bluenrg_gap_aci.c ****   rq.clen = sizeof(cp);
 1180              		.loc 1 439 0
 1181 0020 0223     		movs	r3, #2
 1182 0022 0593     		str	r3, [sp, #20]
 440:Middlewares/ST/BlueNRG-MS/hci/controller/bluenrg_gap_aci.c ****   rq.rparam = &status;
 1183              		.loc 1 440 0
 1184 0024 0DF10303 		add	r3, sp, #3
 1185 0028 0693     		str	r3, [sp, #24]
 441:Middlewares/ST/BlueNRG-MS/hci/controller/bluenrg_gap_aci.c ****   rq.rlen = 1;
 1186              		.loc 1 441 0
 1187 002a 0123     		movs	r3, #1
 1188 002c 0793     		str	r3, [sp, #28]
 442:Middlewares/ST/BlueNRG-MS/hci/controller/bluenrg_gap_aci.c ****   
 443:Middlewares/ST/BlueNRG-MS/hci/controller/bluenrg_gap_aci.c ****   if (hci_send_req(&rq, FALSE) < 0)
 1189              		.loc 1 443 0
 1190 002e 02A8     		add	r0, sp, #8
 1191              	.LVL102:
 1192 0030 FFF7FEFF 		bl	hci_send_req
 1193              	.LVL103:
 1194 0034 0028     		cmp	r0, #0
 1195 0036 04DB     		blt	.L55
 444:Middlewares/ST/BlueNRG-MS/hci/controller/bluenrg_gap_aci.c ****     return BLE_STATUS_TIMEOUT;
 445:Middlewares/ST/BlueNRG-MS/hci/controller/bluenrg_gap_aci.c ****   
 446:Middlewares/ST/BlueNRG-MS/hci/controller/bluenrg_gap_aci.c ****   return status;
 1196              		.loc 1 446 0
 1197 0038 9DF80300 		ldrb	r0, [sp, #3]	@ zero_extendqisi2
 1198              	.L54:
 447:Middlewares/ST/BlueNRG-MS/hci/controller/bluenrg_gap_aci.c **** }
 1199              		.loc 1 447 0
 1200 003c 09B0     		add	sp, sp, #36
 1201              	.LCFI48:
 1202              		.cfi_remember_state
 1203              		.cfi_def_cfa_offset 4
 1204              		@ sp needed
 1205 003e 5DF804FB 		ldr	pc, [sp], #4
 1206              	.L55:
 1207              	.LCFI49:
 1208              		.cfi_restore_state
 444:Middlewares/ST/BlueNRG-MS/hci/controller/bluenrg_gap_aci.c ****     return BLE_STATUS_TIMEOUT;
 1209              		.loc 1 444 0
 1210 0042 FF20     		movs	r0, #255
 1211 0044 FAE7     		b	.L54
 1212              		.cfi_endproc
 1213              	.LFE142:
 1215              		.section	.text.aci_gap_set_non_connectable_IDB04A1,"ax",%progbits
 1216              		.align	1
 1217              		.global	aci_gap_set_non_connectable_IDB04A1
 1218              		.syntax unified
 1219              		.thumb
 1220              		.thumb_func
 1221              		.fpu fpv4-sp-d16
 1223              	aci_gap_set_non_connectable_IDB04A1:
 1224              	.LFB143:
 448:Middlewares/ST/BlueNRG-MS/hci/controller/bluenrg_gap_aci.c **** 
 449:Middlewares/ST/BlueNRG-MS/hci/controller/bluenrg_gap_aci.c **** tBleStatus aci_gap_set_non_connectable_IDB04A1(uint8_t adv_type)
 450:Middlewares/ST/BlueNRG-MS/hci/controller/bluenrg_gap_aci.c **** {
ARM GAS  C:\Users\choee\AppData\Local\Temp\ccvdfN2I.s 			page 31


 1225              		.loc 1 450 0
 1226              		.cfi_startproc
 1227              		@ args = 0, pretend = 0, frame = 32
 1228              		@ frame_needed = 0, uses_anonymous_args = 0
 1229              	.LVL104:
 1230 0000 00B5     		push	{lr}
 1231              	.LCFI50:
 1232              		.cfi_def_cfa_offset 4
 1233              		.cfi_offset 14, -4
 1234 0002 89B0     		sub	sp, sp, #36
 1235              	.LCFI51:
 1236              		.cfi_def_cfa_offset 40
 451:Middlewares/ST/BlueNRG-MS/hci/controller/bluenrg_gap_aci.c ****   struct hci_request rq;
 452:Middlewares/ST/BlueNRG-MS/hci/controller/bluenrg_gap_aci.c ****   gap_set_non_connectable_cp_IDB04A1 cp;    
 453:Middlewares/ST/BlueNRG-MS/hci/controller/bluenrg_gap_aci.c ****   uint8_t status;
 454:Middlewares/ST/BlueNRG-MS/hci/controller/bluenrg_gap_aci.c ****     
 455:Middlewares/ST/BlueNRG-MS/hci/controller/bluenrg_gap_aci.c ****   cp.advertising_event_type = adv_type;  
 1237              		.loc 1 455 0
 1238 0004 8DF80400 		strb	r0, [sp, #4]
 456:Middlewares/ST/BlueNRG-MS/hci/controller/bluenrg_gap_aci.c **** 
 457:Middlewares/ST/BlueNRG-MS/hci/controller/bluenrg_gap_aci.c ****   BLUENRG_memset(&rq, 0, sizeof(rq));
 1239              		.loc 1 457 0
 1240 0008 0021     		movs	r1, #0
 1241 000a 0391     		str	r1, [sp, #12]
 458:Middlewares/ST/BlueNRG-MS/hci/controller/bluenrg_gap_aci.c ****   rq.ogf = OGF_VENDOR_CMD;
 1242              		.loc 1 458 0
 1243 000c 3F23     		movs	r3, #63
 1244 000e ADF80830 		strh	r3, [sp, #8]	@ movhi
 459:Middlewares/ST/BlueNRG-MS/hci/controller/bluenrg_gap_aci.c ****   rq.ocf = OCF_GAP_SET_NON_CONNECTABLE;
 1245              		.loc 1 459 0
 1246 0012 8B23     		movs	r3, #139
 1247 0014 ADF80A30 		strh	r3, [sp, #10]	@ movhi
 460:Middlewares/ST/BlueNRG-MS/hci/controller/bluenrg_gap_aci.c ****   rq.cparam = &cp;
 1248              		.loc 1 460 0
 1249 0018 01AB     		add	r3, sp, #4
 1250 001a 0493     		str	r3, [sp, #16]
 461:Middlewares/ST/BlueNRG-MS/hci/controller/bluenrg_gap_aci.c ****   rq.clen = sizeof(cp);
 1251              		.loc 1 461 0
 1252 001c 0123     		movs	r3, #1
 1253 001e 0593     		str	r3, [sp, #20]
 462:Middlewares/ST/BlueNRG-MS/hci/controller/bluenrg_gap_aci.c ****   rq.rparam = &status;
 1254              		.loc 1 462 0
 1255 0020 0DF10302 		add	r2, sp, #3
 1256 0024 0692     		str	r2, [sp, #24]
 463:Middlewares/ST/BlueNRG-MS/hci/controller/bluenrg_gap_aci.c ****   rq.rlen = 1;
 1257              		.loc 1 463 0
 1258 0026 0793     		str	r3, [sp, #28]
 464:Middlewares/ST/BlueNRG-MS/hci/controller/bluenrg_gap_aci.c ****   
 465:Middlewares/ST/BlueNRG-MS/hci/controller/bluenrg_gap_aci.c ****   if (hci_send_req(&rq, FALSE) < 0)
 1259              		.loc 1 465 0
 1260 0028 02A8     		add	r0, sp, #8
 1261              	.LVL105:
 1262 002a FFF7FEFF 		bl	hci_send_req
 1263              	.LVL106:
 1264 002e 0028     		cmp	r0, #0
 1265 0030 04DB     		blt	.L59
 466:Middlewares/ST/BlueNRG-MS/hci/controller/bluenrg_gap_aci.c ****     return BLE_STATUS_TIMEOUT;
ARM GAS  C:\Users\choee\AppData\Local\Temp\ccvdfN2I.s 			page 32


 467:Middlewares/ST/BlueNRG-MS/hci/controller/bluenrg_gap_aci.c ****   
 468:Middlewares/ST/BlueNRG-MS/hci/controller/bluenrg_gap_aci.c ****   return status;
 1266              		.loc 1 468 0
 1267 0032 9DF80300 		ldrb	r0, [sp, #3]	@ zero_extendqisi2
 1268              	.L58:
 469:Middlewares/ST/BlueNRG-MS/hci/controller/bluenrg_gap_aci.c **** }
 1269              		.loc 1 469 0
 1270 0036 09B0     		add	sp, sp, #36
 1271              	.LCFI52:
 1272              		.cfi_remember_state
 1273              		.cfi_def_cfa_offset 4
 1274              		@ sp needed
 1275 0038 5DF804FB 		ldr	pc, [sp], #4
 1276              	.L59:
 1277              	.LCFI53:
 1278              		.cfi_restore_state
 466:Middlewares/ST/BlueNRG-MS/hci/controller/bluenrg_gap_aci.c ****     return BLE_STATUS_TIMEOUT;
 1279              		.loc 1 466 0
 1280 003c FF20     		movs	r0, #255
 1281 003e FAE7     		b	.L58
 1282              		.cfi_endproc
 1283              	.LFE143:
 1285              		.section	.text.aci_gap_set_undirected_connectable,"ax",%progbits
 1286              		.align	1
 1287              		.global	aci_gap_set_undirected_connectable
 1288              		.syntax unified
 1289              		.thumb
 1290              		.thumb_func
 1291              		.fpu fpv4-sp-d16
 1293              	aci_gap_set_undirected_connectable:
 1294              	.LFB144:
 470:Middlewares/ST/BlueNRG-MS/hci/controller/bluenrg_gap_aci.c **** 
 471:Middlewares/ST/BlueNRG-MS/hci/controller/bluenrg_gap_aci.c **** tBleStatus aci_gap_set_undirected_connectable(uint8_t own_addr_type, uint8_t adv_filter_policy)
 472:Middlewares/ST/BlueNRG-MS/hci/controller/bluenrg_gap_aci.c **** {
 1295              		.loc 1 472 0
 1296              		.cfi_startproc
 1297              		@ args = 0, pretend = 0, frame = 32
 1298              		@ frame_needed = 0, uses_anonymous_args = 0
 1299              	.LVL107:
 1300 0000 00B5     		push	{lr}
 1301              	.LCFI54:
 1302              		.cfi_def_cfa_offset 4
 1303              		.cfi_offset 14, -4
 1304 0002 89B0     		sub	sp, sp, #36
 1305              	.LCFI55:
 1306              		.cfi_def_cfa_offset 40
 473:Middlewares/ST/BlueNRG-MS/hci/controller/bluenrg_gap_aci.c ****   struct hci_request rq;
 474:Middlewares/ST/BlueNRG-MS/hci/controller/bluenrg_gap_aci.c ****   gap_set_undirected_connectable_cp cp;    
 475:Middlewares/ST/BlueNRG-MS/hci/controller/bluenrg_gap_aci.c ****   uint8_t status;
 476:Middlewares/ST/BlueNRG-MS/hci/controller/bluenrg_gap_aci.c ****     
 477:Middlewares/ST/BlueNRG-MS/hci/controller/bluenrg_gap_aci.c ****   cp.own_addr_type = own_addr_type;
 1307              		.loc 1 477 0
 1308 0004 8DF80500 		strb	r0, [sp, #5]
 478:Middlewares/ST/BlueNRG-MS/hci/controller/bluenrg_gap_aci.c ****   cp.adv_filter_policy = adv_filter_policy;
 1309              		.loc 1 478 0
 1310 0008 8DF80410 		strb	r1, [sp, #4]
 479:Middlewares/ST/BlueNRG-MS/hci/controller/bluenrg_gap_aci.c **** 
ARM GAS  C:\Users\choee\AppData\Local\Temp\ccvdfN2I.s 			page 33


 480:Middlewares/ST/BlueNRG-MS/hci/controller/bluenrg_gap_aci.c ****   BLUENRG_memset(&rq, 0, sizeof(rq));
 1311              		.loc 1 480 0
 1312 000c 0021     		movs	r1, #0
 1313              	.LVL108:
 1314 000e 0391     		str	r1, [sp, #12]
 481:Middlewares/ST/BlueNRG-MS/hci/controller/bluenrg_gap_aci.c ****   rq.ogf = OGF_VENDOR_CMD;
 1315              		.loc 1 481 0
 1316 0010 3F23     		movs	r3, #63
 1317 0012 ADF80830 		strh	r3, [sp, #8]	@ movhi
 482:Middlewares/ST/BlueNRG-MS/hci/controller/bluenrg_gap_aci.c ****   rq.ocf = OCF_GAP_SET_UNDIRECTED_CONNECTABLE;
 1318              		.loc 1 482 0
 1319 0016 8C23     		movs	r3, #140
 1320 0018 ADF80A30 		strh	r3, [sp, #10]	@ movhi
 483:Middlewares/ST/BlueNRG-MS/hci/controller/bluenrg_gap_aci.c ****   rq.cparam = &cp;
 1321              		.loc 1 483 0
 1322 001c 01AB     		add	r3, sp, #4
 1323              	.LVL109:
 1324 001e 0493     		str	r3, [sp, #16]
 484:Middlewares/ST/BlueNRG-MS/hci/controller/bluenrg_gap_aci.c ****   rq.clen = sizeof(cp);
 1325              		.loc 1 484 0
 1326 0020 0223     		movs	r3, #2
 1327              	.LVL110:
 1328 0022 0593     		str	r3, [sp, #20]
 485:Middlewares/ST/BlueNRG-MS/hci/controller/bluenrg_gap_aci.c ****   rq.rparam = &status;
 1329              		.loc 1 485 0
 1330 0024 0DF10303 		add	r3, sp, #3
 1331 0028 0693     		str	r3, [sp, #24]
 486:Middlewares/ST/BlueNRG-MS/hci/controller/bluenrg_gap_aci.c ****   rq.rlen = 1;
 1332              		.loc 1 486 0
 1333 002a 0123     		movs	r3, #1
 1334 002c 0793     		str	r3, [sp, #28]
 487:Middlewares/ST/BlueNRG-MS/hci/controller/bluenrg_gap_aci.c ****   
 488:Middlewares/ST/BlueNRG-MS/hci/controller/bluenrg_gap_aci.c ****   if (hci_send_req(&rq, FALSE) < 0)
 1335              		.loc 1 488 0
 1336 002e 02A8     		add	r0, sp, #8
 1337              	.LVL111:
 1338 0030 FFF7FEFF 		bl	hci_send_req
 1339              	.LVL112:
 1340 0034 0028     		cmp	r0, #0
 1341 0036 04DB     		blt	.L63
 489:Middlewares/ST/BlueNRG-MS/hci/controller/bluenrg_gap_aci.c ****     return BLE_STATUS_TIMEOUT;
 490:Middlewares/ST/BlueNRG-MS/hci/controller/bluenrg_gap_aci.c ****   
 491:Middlewares/ST/BlueNRG-MS/hci/controller/bluenrg_gap_aci.c ****   return status;
 1342              		.loc 1 491 0
 1343 0038 9DF80300 		ldrb	r0, [sp, #3]	@ zero_extendqisi2
 1344              	.L62:
 492:Middlewares/ST/BlueNRG-MS/hci/controller/bluenrg_gap_aci.c **** }
 1345              		.loc 1 492 0
 1346 003c 09B0     		add	sp, sp, #36
 1347              	.LCFI56:
 1348              		.cfi_remember_state
 1349              		.cfi_def_cfa_offset 4
 1350              		@ sp needed
 1351 003e 5DF804FB 		ldr	pc, [sp], #4
 1352              	.L63:
 1353              	.LCFI57:
 1354              		.cfi_restore_state
ARM GAS  C:\Users\choee\AppData\Local\Temp\ccvdfN2I.s 			page 34


 489:Middlewares/ST/BlueNRG-MS/hci/controller/bluenrg_gap_aci.c ****     return BLE_STATUS_TIMEOUT;
 1355              		.loc 1 489 0
 1356 0042 FF20     		movs	r0, #255
 1357 0044 FAE7     		b	.L62
 1358              		.cfi_endproc
 1359              	.LFE144:
 1361              		.section	.text.aci_gap_slave_security_request,"ax",%progbits
 1362              		.align	1
 1363              		.global	aci_gap_slave_security_request
 1364              		.syntax unified
 1365              		.thumb
 1366              		.thumb_func
 1367              		.fpu fpv4-sp-d16
 1369              	aci_gap_slave_security_request:
 1370              	.LFB145:
 493:Middlewares/ST/BlueNRG-MS/hci/controller/bluenrg_gap_aci.c **** 
 494:Middlewares/ST/BlueNRG-MS/hci/controller/bluenrg_gap_aci.c **** tBleStatus aci_gap_slave_security_request(uint16_t conn_handle, uint8_t bonding, uint8_t mitm_prote
 495:Middlewares/ST/BlueNRG-MS/hci/controller/bluenrg_gap_aci.c **** {
 1371              		.loc 1 495 0
 1372              		.cfi_startproc
 1373              		@ args = 0, pretend = 0, frame = 32
 1374              		@ frame_needed = 0, uses_anonymous_args = 0
 1375              	.LVL113:
 1376 0000 00B5     		push	{lr}
 1377              	.LCFI58:
 1378              		.cfi_def_cfa_offset 4
 1379              		.cfi_offset 14, -4
 1380 0002 89B0     		sub	sp, sp, #36
 1381              	.LCFI59:
 1382              		.cfi_def_cfa_offset 40
 496:Middlewares/ST/BlueNRG-MS/hci/controller/bluenrg_gap_aci.c ****   struct hci_request rq;
 497:Middlewares/ST/BlueNRG-MS/hci/controller/bluenrg_gap_aci.c ****   gap_slave_security_request_cp cp;
 498:Middlewares/ST/BlueNRG-MS/hci/controller/bluenrg_gap_aci.c ****   uint8_t status;
 499:Middlewares/ST/BlueNRG-MS/hci/controller/bluenrg_gap_aci.c **** 
 500:Middlewares/ST/BlueNRG-MS/hci/controller/bluenrg_gap_aci.c ****   cp.conn_handle = htobs(conn_handle);
 1383              		.loc 1 500 0
 1384 0004 ADF80400 		strh	r0, [sp, #4]	@ movhi
 501:Middlewares/ST/BlueNRG-MS/hci/controller/bluenrg_gap_aci.c ****   cp.bonding = bonding;
 1385              		.loc 1 501 0
 1386 0008 8DF80610 		strb	r1, [sp, #6]
 502:Middlewares/ST/BlueNRG-MS/hci/controller/bluenrg_gap_aci.c ****   cp.mitm_protection = mitm_protection;
 1387              		.loc 1 502 0
 1388 000c 8DF80720 		strb	r2, [sp, #7]
 503:Middlewares/ST/BlueNRG-MS/hci/controller/bluenrg_gap_aci.c ****   
 504:Middlewares/ST/BlueNRG-MS/hci/controller/bluenrg_gap_aci.c ****   BLUENRG_memset(&rq, 0, sizeof(rq));
 505:Middlewares/ST/BlueNRG-MS/hci/controller/bluenrg_gap_aci.c ****   rq.ogf = OGF_VENDOR_CMD;
 1389              		.loc 1 505 0
 1390 0010 3F23     		movs	r3, #63
 1391 0012 ADF80830 		strh	r3, [sp, #8]	@ movhi
 506:Middlewares/ST/BlueNRG-MS/hci/controller/bluenrg_gap_aci.c ****   rq.ocf = OCF_GAP_SLAVE_SECURITY_REQUEST;
 1392              		.loc 1 506 0
 1393 0016 8D23     		movs	r3, #141
 1394 0018 ADF80A30 		strh	r3, [sp, #10]	@ movhi
 507:Middlewares/ST/BlueNRG-MS/hci/controller/bluenrg_gap_aci.c ****   rq.cparam = &cp;
 1395              		.loc 1 507 0
 1396 001c 01AB     		add	r3, sp, #4
 1397 001e 0493     		str	r3, [sp, #16]
ARM GAS  C:\Users\choee\AppData\Local\Temp\ccvdfN2I.s 			page 35


 508:Middlewares/ST/BlueNRG-MS/hci/controller/bluenrg_gap_aci.c ****   rq.clen = sizeof(cp);
 1398              		.loc 1 508 0
 1399 0020 0423     		movs	r3, #4
 1400 0022 0593     		str	r3, [sp, #20]
 509:Middlewares/ST/BlueNRG-MS/hci/controller/bluenrg_gap_aci.c ****   rq.event = EVT_CMD_STATUS;
 1401              		.loc 1 509 0
 1402 0024 0F23     		movs	r3, #15
 1403 0026 0393     		str	r3, [sp, #12]
 510:Middlewares/ST/BlueNRG-MS/hci/controller/bluenrg_gap_aci.c ****   rq.rparam = &status;
 1404              		.loc 1 510 0
 1405 0028 0DF10303 		add	r3, sp, #3
 1406 002c 0693     		str	r3, [sp, #24]
 511:Middlewares/ST/BlueNRG-MS/hci/controller/bluenrg_gap_aci.c ****   rq.rlen = 1;
 1407              		.loc 1 511 0
 1408 002e 0123     		movs	r3, #1
 1409 0030 0793     		str	r3, [sp, #28]
 512:Middlewares/ST/BlueNRG-MS/hci/controller/bluenrg_gap_aci.c ****   
 513:Middlewares/ST/BlueNRG-MS/hci/controller/bluenrg_gap_aci.c ****   if (hci_send_req(&rq, FALSE) < 0)
 1410              		.loc 1 513 0
 1411 0032 0021     		movs	r1, #0
 1412              	.LVL114:
 1413 0034 02A8     		add	r0, sp, #8
 1414              	.LVL115:
 1415 0036 FFF7FEFF 		bl	hci_send_req
 1416              	.LVL116:
 1417 003a 0028     		cmp	r0, #0
 1418 003c 04DB     		blt	.L67
 514:Middlewares/ST/BlueNRG-MS/hci/controller/bluenrg_gap_aci.c ****     return BLE_STATUS_TIMEOUT;
 515:Middlewares/ST/BlueNRG-MS/hci/controller/bluenrg_gap_aci.c **** 
 516:Middlewares/ST/BlueNRG-MS/hci/controller/bluenrg_gap_aci.c ****   return status;
 1419              		.loc 1 516 0
 1420 003e 9DF80300 		ldrb	r0, [sp, #3]	@ zero_extendqisi2
 1421              	.L66:
 517:Middlewares/ST/BlueNRG-MS/hci/controller/bluenrg_gap_aci.c **** 
 518:Middlewares/ST/BlueNRG-MS/hci/controller/bluenrg_gap_aci.c **** }
 1422              		.loc 1 518 0
 1423 0042 09B0     		add	sp, sp, #36
 1424              	.LCFI60:
 1425              		.cfi_remember_state
 1426              		.cfi_def_cfa_offset 4
 1427              		@ sp needed
 1428 0044 5DF804FB 		ldr	pc, [sp], #4
 1429              	.L67:
 1430              	.LCFI61:
 1431              		.cfi_restore_state
 514:Middlewares/ST/BlueNRG-MS/hci/controller/bluenrg_gap_aci.c ****     return BLE_STATUS_TIMEOUT;
 1432              		.loc 1 514 0
 1433 0048 FF20     		movs	r0, #255
 1434 004a FAE7     		b	.L66
 1435              		.cfi_endproc
 1436              	.LFE145:
 1438              		.section	.text.aci_gap_update_adv_data,"ax",%progbits
 1439              		.align	1
 1440              		.global	aci_gap_update_adv_data
 1441              		.syntax unified
 1442              		.thumb
 1443              		.thumb_func
ARM GAS  C:\Users\choee\AppData\Local\Temp\ccvdfN2I.s 			page 36


 1444              		.fpu fpv4-sp-d16
 1446              	aci_gap_update_adv_data:
 1447              	.LFB146:
 519:Middlewares/ST/BlueNRG-MS/hci/controller/bluenrg_gap_aci.c **** 
 520:Middlewares/ST/BlueNRG-MS/hci/controller/bluenrg_gap_aci.c **** tBleStatus aci_gap_update_adv_data(uint8_t AdvLen, const uint8_t *AdvData)
 521:Middlewares/ST/BlueNRG-MS/hci/controller/bluenrg_gap_aci.c **** {
 1448              		.loc 1 521 0
 1449              		.cfi_startproc
 1450              		@ args = 0, pretend = 0, frame = 64
 1451              		@ frame_needed = 0, uses_anonymous_args = 0
 1452              	.LVL117:
 522:Middlewares/ST/BlueNRG-MS/hci/controller/bluenrg_gap_aci.c ****   struct hci_request rq;
 523:Middlewares/ST/BlueNRG-MS/hci/controller/bluenrg_gap_aci.c ****   uint8_t status;
 524:Middlewares/ST/BlueNRG-MS/hci/controller/bluenrg_gap_aci.c ****   uint8_t buffer[32];
 525:Middlewares/ST/BlueNRG-MS/hci/controller/bluenrg_gap_aci.c ****   uint8_t indx = 0;
 526:Middlewares/ST/BlueNRG-MS/hci/controller/bluenrg_gap_aci.c ****     
 527:Middlewares/ST/BlueNRG-MS/hci/controller/bluenrg_gap_aci.c ****   if (AdvLen > (sizeof(buffer)-1))
 1453              		.loc 1 527 0
 1454 0000 1F28     		cmp	r0, #31
 1455 0002 01D9     		bls	.L77
 528:Middlewares/ST/BlueNRG-MS/hci/controller/bluenrg_gap_aci.c ****     return BLE_STATUS_INVALID_PARAMS;
 1456              		.loc 1 528 0
 1457 0004 4220     		movs	r0, #66
 1458              	.LVL118:
 1459 0006 7047     		bx	lr
 1460              	.LVL119:
 1461              	.L77:
 521:Middlewares/ST/BlueNRG-MS/hci/controller/bluenrg_gap_aci.c ****   struct hci_request rq;
 1462              		.loc 1 521 0
 1463 0008 30B5     		push	{r4, r5, lr}
 1464              	.LCFI62:
 1465              		.cfi_def_cfa_offset 12
 1466              		.cfi_offset 4, -12
 1467              		.cfi_offset 5, -8
 1468              		.cfi_offset 14, -4
 1469 000a 91B0     		sub	sp, sp, #68
 1470              	.LCFI63:
 1471              		.cfi_def_cfa_offset 80
 1472 000c 0446     		mov	r4, r0
 529:Middlewares/ST/BlueNRG-MS/hci/controller/bluenrg_gap_aci.c **** 
 530:Middlewares/ST/BlueNRG-MS/hci/controller/bluenrg_gap_aci.c ****   buffer[indx] = AdvLen;
 1473              		.loc 1 530 0
 1474 000e 10AD     		add	r5, sp, #64
 1475 0010 05F83C0D 		strb	r0, [r5, #-60]!
 1476              	.LVL120:
 531:Middlewares/ST/BlueNRG-MS/hci/controller/bluenrg_gap_aci.c ****   indx++;
 532:Middlewares/ST/BlueNRG-MS/hci/controller/bluenrg_gap_aci.c ****     
 533:Middlewares/ST/BlueNRG-MS/hci/controller/bluenrg_gap_aci.c ****   BLUENRG_memcpy(buffer + indx, AdvData, AdvLen);
 1477              		.loc 1 533 0
 1478 0014 0246     		mov	r2, r0
 1479 0016 0DF10500 		add	r0, sp, #5
 1480              	.LVL121:
 1481 001a FFF7FEFF 		bl	memcpy
 1482              	.LVL122:
 534:Middlewares/ST/BlueNRG-MS/hci/controller/bluenrg_gap_aci.c ****   indx +=  AdvLen;
 1483              		.loc 1 534 0
 1484 001e 601C     		adds	r0, r4, #1
ARM GAS  C:\Users\choee\AppData\Local\Temp\ccvdfN2I.s 			page 37


 1485 0020 C0B2     		uxtb	r0, r0
 1486              	.LVL123:
 535:Middlewares/ST/BlueNRG-MS/hci/controller/bluenrg_gap_aci.c ****     
 536:Middlewares/ST/BlueNRG-MS/hci/controller/bluenrg_gap_aci.c ****   BLUENRG_memset(&rq, 0, sizeof(rq));
 1487              		.loc 1 536 0
 1488 0022 0021     		movs	r1, #0
 1489 0024 0B91     		str	r1, [sp, #44]
 537:Middlewares/ST/BlueNRG-MS/hci/controller/bluenrg_gap_aci.c ****   rq.ogf = OGF_VENDOR_CMD;
 1490              		.loc 1 537 0
 1491 0026 3F23     		movs	r3, #63
 1492 0028 ADF82830 		strh	r3, [sp, #40]	@ movhi
 538:Middlewares/ST/BlueNRG-MS/hci/controller/bluenrg_gap_aci.c ****   rq.ocf = OCF_GAP_UPDATE_ADV_DATA;
 1493              		.loc 1 538 0
 1494 002c 8E23     		movs	r3, #142
 1495 002e ADF82A30 		strh	r3, [sp, #42]	@ movhi
 539:Middlewares/ST/BlueNRG-MS/hci/controller/bluenrg_gap_aci.c ****   rq.cparam = (void *)buffer;
 1496              		.loc 1 539 0
 1497 0032 0C95     		str	r5, [sp, #48]
 540:Middlewares/ST/BlueNRG-MS/hci/controller/bluenrg_gap_aci.c ****   rq.clen = indx;
 1498              		.loc 1 540 0
 1499 0034 0D90     		str	r0, [sp, #52]
 541:Middlewares/ST/BlueNRG-MS/hci/controller/bluenrg_gap_aci.c ****   rq.rparam = &status;
 1500              		.loc 1 541 0
 1501 0036 0DF12703 		add	r3, sp, #39
 1502 003a 0E93     		str	r3, [sp, #56]
 542:Middlewares/ST/BlueNRG-MS/hci/controller/bluenrg_gap_aci.c ****   rq.rlen = 1;
 1503              		.loc 1 542 0
 1504 003c 0123     		movs	r3, #1
 1505 003e 0F93     		str	r3, [sp, #60]
 543:Middlewares/ST/BlueNRG-MS/hci/controller/bluenrg_gap_aci.c ****     
 544:Middlewares/ST/BlueNRG-MS/hci/controller/bluenrg_gap_aci.c ****   if (hci_send_req(&rq, FALSE) < 0)
 1506              		.loc 1 544 0
 1507 0040 0AA8     		add	r0, sp, #40
 1508              	.LVL124:
 1509 0042 FFF7FEFF 		bl	hci_send_req
 1510              	.LVL125:
 1511 0046 0028     		cmp	r0, #0
 1512 0048 03DB     		blt	.L72
 545:Middlewares/ST/BlueNRG-MS/hci/controller/bluenrg_gap_aci.c ****     return BLE_STATUS_TIMEOUT;
 546:Middlewares/ST/BlueNRG-MS/hci/controller/bluenrg_gap_aci.c ****     
 547:Middlewares/ST/BlueNRG-MS/hci/controller/bluenrg_gap_aci.c ****   return status;
 1513              		.loc 1 547 0
 1514 004a 9DF82700 		ldrb	r0, [sp, #39]	@ zero_extendqisi2
 1515              	.L70:
 548:Middlewares/ST/BlueNRG-MS/hci/controller/bluenrg_gap_aci.c **** }
 1516              		.loc 1 548 0
 1517 004e 11B0     		add	sp, sp, #68
 1518              	.LCFI64:
 1519              		.cfi_remember_state
 1520              		.cfi_def_cfa_offset 12
 1521              		@ sp needed
 1522 0050 30BD     		pop	{r4, r5, pc}
 1523              	.LVL126:
 1524              	.L72:
 1525              	.LCFI65:
 1526              		.cfi_restore_state
 545:Middlewares/ST/BlueNRG-MS/hci/controller/bluenrg_gap_aci.c ****     return BLE_STATUS_TIMEOUT;
ARM GAS  C:\Users\choee\AppData\Local\Temp\ccvdfN2I.s 			page 38


 1527              		.loc 1 545 0
 1528 0052 FF20     		movs	r0, #255
 1529 0054 FBE7     		b	.L70
 1530              		.cfi_endproc
 1531              	.LFE146:
 1533              		.section	.text.aci_gap_delete_ad_type,"ax",%progbits
 1534              		.align	1
 1535              		.global	aci_gap_delete_ad_type
 1536              		.syntax unified
 1537              		.thumb
 1538              		.thumb_func
 1539              		.fpu fpv4-sp-d16
 1541              	aci_gap_delete_ad_type:
 1542              	.LFB147:
 549:Middlewares/ST/BlueNRG-MS/hci/controller/bluenrg_gap_aci.c **** 
 550:Middlewares/ST/BlueNRG-MS/hci/controller/bluenrg_gap_aci.c **** tBleStatus aci_gap_delete_ad_type(uint8_t ad_type)
 551:Middlewares/ST/BlueNRG-MS/hci/controller/bluenrg_gap_aci.c **** {
 1543              		.loc 1 551 0
 1544              		.cfi_startproc
 1545              		@ args = 0, pretend = 0, frame = 32
 1546              		@ frame_needed = 0, uses_anonymous_args = 0
 1547              	.LVL127:
 1548 0000 00B5     		push	{lr}
 1549              	.LCFI66:
 1550              		.cfi_def_cfa_offset 4
 1551              		.cfi_offset 14, -4
 1552 0002 89B0     		sub	sp, sp, #36
 1553              	.LCFI67:
 1554              		.cfi_def_cfa_offset 40
 552:Middlewares/ST/BlueNRG-MS/hci/controller/bluenrg_gap_aci.c ****   struct hci_request rq;
 553:Middlewares/ST/BlueNRG-MS/hci/controller/bluenrg_gap_aci.c ****   gap_delete_ad_type_cp cp;
 554:Middlewares/ST/BlueNRG-MS/hci/controller/bluenrg_gap_aci.c ****   uint8_t status;
 555:Middlewares/ST/BlueNRG-MS/hci/controller/bluenrg_gap_aci.c **** 
 556:Middlewares/ST/BlueNRG-MS/hci/controller/bluenrg_gap_aci.c ****   cp.ad_type = ad_type;
 1555              		.loc 1 556 0
 1556 0004 8DF80400 		strb	r0, [sp, #4]
 557:Middlewares/ST/BlueNRG-MS/hci/controller/bluenrg_gap_aci.c ****   
 558:Middlewares/ST/BlueNRG-MS/hci/controller/bluenrg_gap_aci.c ****   BLUENRG_memset(&rq, 0, sizeof(rq));
 1557              		.loc 1 558 0
 1558 0008 0021     		movs	r1, #0
 1559 000a 0391     		str	r1, [sp, #12]
 559:Middlewares/ST/BlueNRG-MS/hci/controller/bluenrg_gap_aci.c ****   rq.ogf = OGF_VENDOR_CMD;
 1560              		.loc 1 559 0
 1561 000c 3F23     		movs	r3, #63
 1562 000e ADF80830 		strh	r3, [sp, #8]	@ movhi
 560:Middlewares/ST/BlueNRG-MS/hci/controller/bluenrg_gap_aci.c ****   rq.ocf = OCF_GAP_DELETE_AD_TYPE;
 1563              		.loc 1 560 0
 1564 0012 8F23     		movs	r3, #143
 1565 0014 ADF80A30 		strh	r3, [sp, #10]	@ movhi
 561:Middlewares/ST/BlueNRG-MS/hci/controller/bluenrg_gap_aci.c ****   rq.cparam = &cp;
 1566              		.loc 1 561 0
 1567 0018 01AB     		add	r3, sp, #4
 1568 001a 0493     		str	r3, [sp, #16]
 562:Middlewares/ST/BlueNRG-MS/hci/controller/bluenrg_gap_aci.c ****   rq.clen = sizeof(cp);
 1569              		.loc 1 562 0
 1570 001c 0123     		movs	r3, #1
 1571 001e 0593     		str	r3, [sp, #20]
ARM GAS  C:\Users\choee\AppData\Local\Temp\ccvdfN2I.s 			page 39


 563:Middlewares/ST/BlueNRG-MS/hci/controller/bluenrg_gap_aci.c ****   rq.rparam = &status;
 1572              		.loc 1 563 0
 1573 0020 0DF10302 		add	r2, sp, #3
 1574 0024 0692     		str	r2, [sp, #24]
 564:Middlewares/ST/BlueNRG-MS/hci/controller/bluenrg_gap_aci.c ****   rq.rlen = 1;
 1575              		.loc 1 564 0
 1576 0026 0793     		str	r3, [sp, #28]
 565:Middlewares/ST/BlueNRG-MS/hci/controller/bluenrg_gap_aci.c ****   
 566:Middlewares/ST/BlueNRG-MS/hci/controller/bluenrg_gap_aci.c ****   if (hci_send_req(&rq, FALSE) < 0)
 1577              		.loc 1 566 0
 1578 0028 02A8     		add	r0, sp, #8
 1579              	.LVL128:
 1580 002a FFF7FEFF 		bl	hci_send_req
 1581              	.LVL129:
 1582 002e 0028     		cmp	r0, #0
 1583 0030 04DB     		blt	.L80
 567:Middlewares/ST/BlueNRG-MS/hci/controller/bluenrg_gap_aci.c ****     return BLE_STATUS_TIMEOUT;
 568:Middlewares/ST/BlueNRG-MS/hci/controller/bluenrg_gap_aci.c **** 
 569:Middlewares/ST/BlueNRG-MS/hci/controller/bluenrg_gap_aci.c ****   return status;
 1584              		.loc 1 569 0
 1585 0032 9DF80300 		ldrb	r0, [sp, #3]	@ zero_extendqisi2
 1586              	.L79:
 570:Middlewares/ST/BlueNRG-MS/hci/controller/bluenrg_gap_aci.c **** }
 1587              		.loc 1 570 0
 1588 0036 09B0     		add	sp, sp, #36
 1589              	.LCFI68:
 1590              		.cfi_remember_state
 1591              		.cfi_def_cfa_offset 4
 1592              		@ sp needed
 1593 0038 5DF804FB 		ldr	pc, [sp], #4
 1594              	.L80:
 1595              	.LCFI69:
 1596              		.cfi_restore_state
 567:Middlewares/ST/BlueNRG-MS/hci/controller/bluenrg_gap_aci.c ****     return BLE_STATUS_TIMEOUT;
 1597              		.loc 1 567 0
 1598 003c FF20     		movs	r0, #255
 1599 003e FAE7     		b	.L79
 1600              		.cfi_endproc
 1601              	.LFE147:
 1603              		.section	.text.aci_gap_get_security_level,"ax",%progbits
 1604              		.align	1
 1605              		.global	aci_gap_get_security_level
 1606              		.syntax unified
 1607              		.thumb
 1608              		.thumb_func
 1609              		.fpu fpv4-sp-d16
 1611              	aci_gap_get_security_level:
 1612              	.LFB148:
 571:Middlewares/ST/BlueNRG-MS/hci/controller/bluenrg_gap_aci.c **** 
 572:Middlewares/ST/BlueNRG-MS/hci/controller/bluenrg_gap_aci.c **** tBleStatus aci_gap_get_security_level(uint8_t* mitm_protection, uint8_t* bonding,
 573:Middlewares/ST/BlueNRG-MS/hci/controller/bluenrg_gap_aci.c ****                                       uint8_t* oob_data, uint8_t* passkey_required)
 574:Middlewares/ST/BlueNRG-MS/hci/controller/bluenrg_gap_aci.c **** {
 1613              		.loc 1 574 0
 1614              		.cfi_startproc
 1615              		@ args = 0, pretend = 0, frame = 32
 1616              		@ frame_needed = 0, uses_anonymous_args = 0
 1617              	.LVL130:
ARM GAS  C:\Users\choee\AppData\Local\Temp\ccvdfN2I.s 			page 40


 1618 0000 F0B5     		push	{r4, r5, r6, r7, lr}
 1619              	.LCFI70:
 1620              		.cfi_def_cfa_offset 20
 1621              		.cfi_offset 4, -20
 1622              		.cfi_offset 5, -16
 1623              		.cfi_offset 6, -12
 1624              		.cfi_offset 7, -8
 1625              		.cfi_offset 14, -4
 1626 0002 89B0     		sub	sp, sp, #36
 1627              	.LCFI71:
 1628              		.cfi_def_cfa_offset 56
 1629 0004 0746     		mov	r7, r0
 1630 0006 0E46     		mov	r6, r1
 1631 0008 1546     		mov	r5, r2
 1632 000a 1C46     		mov	r4, r3
 575:Middlewares/ST/BlueNRG-MS/hci/controller/bluenrg_gap_aci.c ****   struct hci_request rq;
 576:Middlewares/ST/BlueNRG-MS/hci/controller/bluenrg_gap_aci.c ****   gap_get_security_level_rp resp;
 577:Middlewares/ST/BlueNRG-MS/hci/controller/bluenrg_gap_aci.c ****     
 578:Middlewares/ST/BlueNRG-MS/hci/controller/bluenrg_gap_aci.c ****   BLUENRG_memset(&resp, 0, sizeof(resp));
 1633              		.loc 1 578 0
 1634 000c 0021     		movs	r1, #0
 1635              	.LVL131:
 1636 000e 0091     		str	r1, [sp]
 1637 0010 8DF80410 		strb	r1, [sp, #4]
 579:Middlewares/ST/BlueNRG-MS/hci/controller/bluenrg_gap_aci.c ****   
 580:Middlewares/ST/BlueNRG-MS/hci/controller/bluenrg_gap_aci.c ****   BLUENRG_memset(&rq, 0, sizeof(rq));
 1638              		.loc 1 580 0
 1639 0014 0391     		str	r1, [sp, #12]
 1640 0016 0491     		str	r1, [sp, #16]
 1641 0018 0591     		str	r1, [sp, #20]
 581:Middlewares/ST/BlueNRG-MS/hci/controller/bluenrg_gap_aci.c ****   rq.ogf = OGF_VENDOR_CMD;
 1642              		.loc 1 581 0
 1643 001a 3F23     		movs	r3, #63
 1644              	.LVL132:
 1645 001c ADF80830 		strh	r3, [sp, #8]	@ movhi
 582:Middlewares/ST/BlueNRG-MS/hci/controller/bluenrg_gap_aci.c ****   rq.ocf = OCF_GAP_GET_SECURITY_LEVEL;
 1646              		.loc 1 582 0
 1647 0020 9023     		movs	r3, #144
 1648 0022 ADF80A30 		strh	r3, [sp, #10]	@ movhi
 583:Middlewares/ST/BlueNRG-MS/hci/controller/bluenrg_gap_aci.c ****   rq.rparam = &resp;
 1649              		.loc 1 583 0
 1650 0026 CDF818D0 		str	sp, [sp, #24]
 584:Middlewares/ST/BlueNRG-MS/hci/controller/bluenrg_gap_aci.c ****   rq.rlen = GAP_GET_SECURITY_LEVEL_RP_SIZE;
 1651              		.loc 1 584 0
 1652 002a 0523     		movs	r3, #5
 1653 002c 0793     		str	r3, [sp, #28]
 585:Middlewares/ST/BlueNRG-MS/hci/controller/bluenrg_gap_aci.c ****   
 586:Middlewares/ST/BlueNRG-MS/hci/controller/bluenrg_gap_aci.c ****   if (hci_send_req(&rq, FALSE) < 0)
 1654              		.loc 1 586 0
 1655 002e 02A8     		add	r0, sp, #8
 1656              	.LVL133:
 1657 0030 FFF7FEFF 		bl	hci_send_req
 1658              	.LVL134:
 1659 0034 0028     		cmp	r0, #0
 1660 0036 11DB     		blt	.L84
 587:Middlewares/ST/BlueNRG-MS/hci/controller/bluenrg_gap_aci.c ****     return BLE_STATUS_TIMEOUT;
 588:Middlewares/ST/BlueNRG-MS/hci/controller/bluenrg_gap_aci.c ****   
ARM GAS  C:\Users\choee\AppData\Local\Temp\ccvdfN2I.s 			page 41


 589:Middlewares/ST/BlueNRG-MS/hci/controller/bluenrg_gap_aci.c ****   if (resp.status) {
 1661              		.loc 1 589 0
 1662 0038 9DF80000 		ldrb	r0, [sp]	@ zero_extendqisi2
 1663 003c 78B9     		cbnz	r0, .L83
 590:Middlewares/ST/BlueNRG-MS/hci/controller/bluenrg_gap_aci.c ****     return resp.status;
 591:Middlewares/ST/BlueNRG-MS/hci/controller/bluenrg_gap_aci.c ****   }
 592:Middlewares/ST/BlueNRG-MS/hci/controller/bluenrg_gap_aci.c ****   
 593:Middlewares/ST/BlueNRG-MS/hci/controller/bluenrg_gap_aci.c ****   *mitm_protection = resp.mitm_protection;
 1664              		.loc 1 593 0
 1665 003e 9DF80130 		ldrb	r3, [sp, #1]	@ zero_extendqisi2
 1666 0042 3B70     		strb	r3, [r7]
 594:Middlewares/ST/BlueNRG-MS/hci/controller/bluenrg_gap_aci.c ****   *bonding = resp.bonding;
 1667              		.loc 1 594 0
 1668 0044 9DF80230 		ldrb	r3, [sp, #2]	@ zero_extendqisi2
 1669 0048 3370     		strb	r3, [r6]
 595:Middlewares/ST/BlueNRG-MS/hci/controller/bluenrg_gap_aci.c ****   *oob_data = resp.oob_data;
 1670              		.loc 1 595 0
 1671 004a 9DF80330 		ldrb	r3, [sp, #3]	@ zero_extendqisi2
 1672 004e 2B70     		strb	r3, [r5]
 596:Middlewares/ST/BlueNRG-MS/hci/controller/bluenrg_gap_aci.c ****   *passkey_required = resp.passkey_required;
 1673              		.loc 1 596 0
 1674 0050 9DF80430 		ldrb	r3, [sp, #4]	@ zero_extendqisi2
 1675 0054 2370     		strb	r3, [r4]
 597:Middlewares/ST/BlueNRG-MS/hci/controller/bluenrg_gap_aci.c **** 
 598:Middlewares/ST/BlueNRG-MS/hci/controller/bluenrg_gap_aci.c ****   return resp.status;
 1676              		.loc 1 598 0
 1677 0056 9DF80000 		ldrb	r0, [sp]	@ zero_extendqisi2
 1678 005a 00E0     		b	.L83
 1679              	.L84:
 587:Middlewares/ST/BlueNRG-MS/hci/controller/bluenrg_gap_aci.c ****   
 1680              		.loc 1 587 0
 1681 005c FF20     		movs	r0, #255
 1682              	.L83:
 599:Middlewares/ST/BlueNRG-MS/hci/controller/bluenrg_gap_aci.c **** }
 1683              		.loc 1 599 0
 1684 005e 09B0     		add	sp, sp, #36
 1685              	.LCFI72:
 1686              		.cfi_def_cfa_offset 20
 1687              		@ sp needed
 1688 0060 F0BD     		pop	{r4, r5, r6, r7, pc}
 1689              		.cfi_endproc
 1690              	.LFE148:
 1692              		.section	.text.aci_gap_configure_whitelist,"ax",%progbits
 1693              		.align	1
 1694              		.global	aci_gap_configure_whitelist
 1695              		.syntax unified
 1696              		.thumb
 1697              		.thumb_func
 1698              		.fpu fpv4-sp-d16
 1700              	aci_gap_configure_whitelist:
 1701              	.LFB149:
 600:Middlewares/ST/BlueNRG-MS/hci/controller/bluenrg_gap_aci.c **** 
 601:Middlewares/ST/BlueNRG-MS/hci/controller/bluenrg_gap_aci.c **** tBleStatus aci_gap_configure_whitelist(void)
 602:Middlewares/ST/BlueNRG-MS/hci/controller/bluenrg_gap_aci.c **** {
 1702              		.loc 1 602 0
 1703              		.cfi_startproc
 1704              		@ args = 0, pretend = 0, frame = 32
ARM GAS  C:\Users\choee\AppData\Local\Temp\ccvdfN2I.s 			page 42


 1705              		@ frame_needed = 0, uses_anonymous_args = 0
 1706 0000 00B5     		push	{lr}
 1707              	.LCFI73:
 1708              		.cfi_def_cfa_offset 4
 1709              		.cfi_offset 14, -4
 1710 0002 89B0     		sub	sp, sp, #36
 1711              	.LCFI74:
 1712              		.cfi_def_cfa_offset 40
 603:Middlewares/ST/BlueNRG-MS/hci/controller/bluenrg_gap_aci.c ****   struct hci_request rq;
 604:Middlewares/ST/BlueNRG-MS/hci/controller/bluenrg_gap_aci.c ****   uint8_t status;
 605:Middlewares/ST/BlueNRG-MS/hci/controller/bluenrg_gap_aci.c ****   
 606:Middlewares/ST/BlueNRG-MS/hci/controller/bluenrg_gap_aci.c ****   BLUENRG_memset(&rq, 0, sizeof(rq));
 1713              		.loc 1 606 0
 1714 0004 0021     		movs	r1, #0
 1715 0006 0391     		str	r1, [sp, #12]
 1716 0008 0491     		str	r1, [sp, #16]
 1717 000a 0591     		str	r1, [sp, #20]
 607:Middlewares/ST/BlueNRG-MS/hci/controller/bluenrg_gap_aci.c ****   rq.ogf = OGF_VENDOR_CMD;
 1718              		.loc 1 607 0
 1719 000c 3F23     		movs	r3, #63
 1720 000e ADF80830 		strh	r3, [sp, #8]	@ movhi
 608:Middlewares/ST/BlueNRG-MS/hci/controller/bluenrg_gap_aci.c ****   rq.ocf = OCF_GAP_CONFIGURE_WHITELIST;
 1721              		.loc 1 608 0
 1722 0012 9223     		movs	r3, #146
 1723 0014 ADF80A30 		strh	r3, [sp, #10]	@ movhi
 609:Middlewares/ST/BlueNRG-MS/hci/controller/bluenrg_gap_aci.c ****   rq.rparam = &status;
 1724              		.loc 1 609 0
 1725 0018 0DF10703 		add	r3, sp, #7
 1726 001c 0693     		str	r3, [sp, #24]
 610:Middlewares/ST/BlueNRG-MS/hci/controller/bluenrg_gap_aci.c ****   rq.rlen = 1;
 1727              		.loc 1 610 0
 1728 001e 0123     		movs	r3, #1
 1729 0020 0793     		str	r3, [sp, #28]
 611:Middlewares/ST/BlueNRG-MS/hci/controller/bluenrg_gap_aci.c ****   
 612:Middlewares/ST/BlueNRG-MS/hci/controller/bluenrg_gap_aci.c ****   if (hci_send_req(&rq, FALSE) < 0)
 1730              		.loc 1 612 0
 1731 0022 02A8     		add	r0, sp, #8
 1732 0024 FFF7FEFF 		bl	hci_send_req
 1733              	.LVL135:
 1734 0028 0028     		cmp	r0, #0
 1735 002a 04DB     		blt	.L88
 613:Middlewares/ST/BlueNRG-MS/hci/controller/bluenrg_gap_aci.c ****     return BLE_STATUS_TIMEOUT;
 614:Middlewares/ST/BlueNRG-MS/hci/controller/bluenrg_gap_aci.c **** 
 615:Middlewares/ST/BlueNRG-MS/hci/controller/bluenrg_gap_aci.c ****   return status;
 1736              		.loc 1 615 0
 1737 002c 9DF80700 		ldrb	r0, [sp, #7]	@ zero_extendqisi2
 1738              	.L87:
 616:Middlewares/ST/BlueNRG-MS/hci/controller/bluenrg_gap_aci.c **** }
 1739              		.loc 1 616 0
 1740 0030 09B0     		add	sp, sp, #36
 1741              	.LCFI75:
 1742              		.cfi_remember_state
 1743              		.cfi_def_cfa_offset 4
 1744              		@ sp needed
 1745 0032 5DF804FB 		ldr	pc, [sp], #4
 1746              	.L88:
 1747              	.LCFI76:
ARM GAS  C:\Users\choee\AppData\Local\Temp\ccvdfN2I.s 			page 43


 1748              		.cfi_restore_state
 613:Middlewares/ST/BlueNRG-MS/hci/controller/bluenrg_gap_aci.c ****     return BLE_STATUS_TIMEOUT;
 1749              		.loc 1 613 0
 1750 0036 FF20     		movs	r0, #255
 1751 0038 FAE7     		b	.L87
 1752              		.cfi_endproc
 1753              	.LFE149:
 1755              		.section	.text.aci_gap_terminate,"ax",%progbits
 1756              		.align	1
 1757              		.global	aci_gap_terminate
 1758              		.syntax unified
 1759              		.thumb
 1760              		.thumb_func
 1761              		.fpu fpv4-sp-d16
 1763              	aci_gap_terminate:
 1764              	.LFB150:
 617:Middlewares/ST/BlueNRG-MS/hci/controller/bluenrg_gap_aci.c **** 
 618:Middlewares/ST/BlueNRG-MS/hci/controller/bluenrg_gap_aci.c **** tBleStatus aci_gap_terminate(uint16_t conn_handle, uint8_t reason)
 619:Middlewares/ST/BlueNRG-MS/hci/controller/bluenrg_gap_aci.c **** {
 1765              		.loc 1 619 0
 1766              		.cfi_startproc
 1767              		@ args = 0, pretend = 0, frame = 32
 1768              		@ frame_needed = 0, uses_anonymous_args = 0
 1769              	.LVL136:
 1770 0000 00B5     		push	{lr}
 1771              	.LCFI77:
 1772              		.cfi_def_cfa_offset 4
 1773              		.cfi_offset 14, -4
 1774 0002 89B0     		sub	sp, sp, #36
 1775              	.LCFI78:
 1776              		.cfi_def_cfa_offset 40
 620:Middlewares/ST/BlueNRG-MS/hci/controller/bluenrg_gap_aci.c ****   struct hci_request rq;
 621:Middlewares/ST/BlueNRG-MS/hci/controller/bluenrg_gap_aci.c ****   gap_terminate_cp cp;
 622:Middlewares/ST/BlueNRG-MS/hci/controller/bluenrg_gap_aci.c ****   uint8_t status;  
 623:Middlewares/ST/BlueNRG-MS/hci/controller/bluenrg_gap_aci.c **** 
 624:Middlewares/ST/BlueNRG-MS/hci/controller/bluenrg_gap_aci.c ****   cp.handle = htobs(conn_handle);
 1777              		.loc 1 624 0
 1778 0004 ADF80400 		strh	r0, [sp, #4]	@ movhi
 625:Middlewares/ST/BlueNRG-MS/hci/controller/bluenrg_gap_aci.c ****   cp.reason = reason;
 1779              		.loc 1 625 0
 1780 0008 8DF80610 		strb	r1, [sp, #6]
 626:Middlewares/ST/BlueNRG-MS/hci/controller/bluenrg_gap_aci.c **** 
 627:Middlewares/ST/BlueNRG-MS/hci/controller/bluenrg_gap_aci.c ****   BLUENRG_memset(&rq, 0, sizeof(rq));
 628:Middlewares/ST/BlueNRG-MS/hci/controller/bluenrg_gap_aci.c ****   rq.ogf = OGF_VENDOR_CMD;
 1781              		.loc 1 628 0
 1782 000c 3F23     		movs	r3, #63
 1783 000e ADF80830 		strh	r3, [sp, #8]	@ movhi
 629:Middlewares/ST/BlueNRG-MS/hci/controller/bluenrg_gap_aci.c ****   rq.ocf = OCF_GAP_TERMINATE;
 1784              		.loc 1 629 0
 1785 0012 9323     		movs	r3, #147
 1786 0014 ADF80A30 		strh	r3, [sp, #10]	@ movhi
 630:Middlewares/ST/BlueNRG-MS/hci/controller/bluenrg_gap_aci.c ****   rq.cparam = &cp;
 1787              		.loc 1 630 0
 1788 0018 01AB     		add	r3, sp, #4
 1789 001a 0493     		str	r3, [sp, #16]
 631:Middlewares/ST/BlueNRG-MS/hci/controller/bluenrg_gap_aci.c ****   rq.clen = sizeof(cp);
 1790              		.loc 1 631 0
ARM GAS  C:\Users\choee\AppData\Local\Temp\ccvdfN2I.s 			page 44


 1791 001c 0323     		movs	r3, #3
 1792 001e 0593     		str	r3, [sp, #20]
 632:Middlewares/ST/BlueNRG-MS/hci/controller/bluenrg_gap_aci.c ****   rq.event = EVT_CMD_STATUS;
 1793              		.loc 1 632 0
 1794 0020 0F23     		movs	r3, #15
 1795 0022 0393     		str	r3, [sp, #12]
 633:Middlewares/ST/BlueNRG-MS/hci/controller/bluenrg_gap_aci.c ****   rq.rparam = &status;
 1796              		.loc 1 633 0
 1797 0024 0DF10303 		add	r3, sp, #3
 1798 0028 0693     		str	r3, [sp, #24]
 634:Middlewares/ST/BlueNRG-MS/hci/controller/bluenrg_gap_aci.c ****   rq.rlen = 1;
 1799              		.loc 1 634 0
 1800 002a 0123     		movs	r3, #1
 1801 002c 0793     		str	r3, [sp, #28]
 635:Middlewares/ST/BlueNRG-MS/hci/controller/bluenrg_gap_aci.c ****   
 636:Middlewares/ST/BlueNRG-MS/hci/controller/bluenrg_gap_aci.c ****   if (hci_send_req(&rq, FALSE) < 0)
 1802              		.loc 1 636 0
 1803 002e 0021     		movs	r1, #0
 1804              	.LVL137:
 1805 0030 02A8     		add	r0, sp, #8
 1806              	.LVL138:
 1807 0032 FFF7FEFF 		bl	hci_send_req
 1808              	.LVL139:
 1809 0036 0028     		cmp	r0, #0
 1810 0038 04DB     		blt	.L92
 637:Middlewares/ST/BlueNRG-MS/hci/controller/bluenrg_gap_aci.c ****     return BLE_STATUS_TIMEOUT;
 638:Middlewares/ST/BlueNRG-MS/hci/controller/bluenrg_gap_aci.c **** 
 639:Middlewares/ST/BlueNRG-MS/hci/controller/bluenrg_gap_aci.c ****   return status; 
 1811              		.loc 1 639 0
 1812 003a 9DF80300 		ldrb	r0, [sp, #3]	@ zero_extendqisi2
 1813              	.L91:
 640:Middlewares/ST/BlueNRG-MS/hci/controller/bluenrg_gap_aci.c **** }
 1814              		.loc 1 640 0
 1815 003e 09B0     		add	sp, sp, #36
 1816              	.LCFI79:
 1817              		.cfi_remember_state
 1818              		.cfi_def_cfa_offset 4
 1819              		@ sp needed
 1820 0040 5DF804FB 		ldr	pc, [sp], #4
 1821              	.L92:
 1822              	.LCFI80:
 1823              		.cfi_restore_state
 637:Middlewares/ST/BlueNRG-MS/hci/controller/bluenrg_gap_aci.c ****     return BLE_STATUS_TIMEOUT;
 1824              		.loc 1 637 0
 1825 0044 FF20     		movs	r0, #255
 1826 0046 FAE7     		b	.L91
 1827              		.cfi_endproc
 1828              	.LFE150:
 1830              		.section	.text.aci_gap_clear_security_database,"ax",%progbits
 1831              		.align	1
 1832              		.global	aci_gap_clear_security_database
 1833              		.syntax unified
 1834              		.thumb
 1835              		.thumb_func
 1836              		.fpu fpv4-sp-d16
 1838              	aci_gap_clear_security_database:
 1839              	.LFB151:
ARM GAS  C:\Users\choee\AppData\Local\Temp\ccvdfN2I.s 			page 45


 641:Middlewares/ST/BlueNRG-MS/hci/controller/bluenrg_gap_aci.c **** 
 642:Middlewares/ST/BlueNRG-MS/hci/controller/bluenrg_gap_aci.c **** tBleStatus aci_gap_clear_security_database(void)
 643:Middlewares/ST/BlueNRG-MS/hci/controller/bluenrg_gap_aci.c **** {
 1840              		.loc 1 643 0
 1841              		.cfi_startproc
 1842              		@ args = 0, pretend = 0, frame = 32
 1843              		@ frame_needed = 0, uses_anonymous_args = 0
 1844 0000 00B5     		push	{lr}
 1845              	.LCFI81:
 1846              		.cfi_def_cfa_offset 4
 1847              		.cfi_offset 14, -4
 1848 0002 89B0     		sub	sp, sp, #36
 1849              	.LCFI82:
 1850              		.cfi_def_cfa_offset 40
 644:Middlewares/ST/BlueNRG-MS/hci/controller/bluenrg_gap_aci.c ****   struct hci_request rq;
 645:Middlewares/ST/BlueNRG-MS/hci/controller/bluenrg_gap_aci.c ****   uint8_t status;
 646:Middlewares/ST/BlueNRG-MS/hci/controller/bluenrg_gap_aci.c ****   
 647:Middlewares/ST/BlueNRG-MS/hci/controller/bluenrg_gap_aci.c ****   BLUENRG_memset(&rq, 0, sizeof(rq));
 1851              		.loc 1 647 0
 1852 0004 0021     		movs	r1, #0
 1853 0006 0391     		str	r1, [sp, #12]
 1854 0008 0491     		str	r1, [sp, #16]
 1855 000a 0591     		str	r1, [sp, #20]
 648:Middlewares/ST/BlueNRG-MS/hci/controller/bluenrg_gap_aci.c ****   rq.ogf = OGF_VENDOR_CMD;
 1856              		.loc 1 648 0
 1857 000c 3F23     		movs	r3, #63
 1858 000e ADF80830 		strh	r3, [sp, #8]	@ movhi
 649:Middlewares/ST/BlueNRG-MS/hci/controller/bluenrg_gap_aci.c ****   rq.ocf = OCF_GAP_CLEAR_SECURITY_DB;
 1859              		.loc 1 649 0
 1860 0012 9423     		movs	r3, #148
 1861 0014 ADF80A30 		strh	r3, [sp, #10]	@ movhi
 650:Middlewares/ST/BlueNRG-MS/hci/controller/bluenrg_gap_aci.c ****   rq.rparam = &status;
 1862              		.loc 1 650 0
 1863 0018 0DF10703 		add	r3, sp, #7
 1864 001c 0693     		str	r3, [sp, #24]
 651:Middlewares/ST/BlueNRG-MS/hci/controller/bluenrg_gap_aci.c ****   rq.rlen = 1;
 1865              		.loc 1 651 0
 1866 001e 0123     		movs	r3, #1
 1867 0020 0793     		str	r3, [sp, #28]
 652:Middlewares/ST/BlueNRG-MS/hci/controller/bluenrg_gap_aci.c ****   
 653:Middlewares/ST/BlueNRG-MS/hci/controller/bluenrg_gap_aci.c ****   if (hci_send_req(&rq, FALSE) < 0)
 1868              		.loc 1 653 0
 1869 0022 02A8     		add	r0, sp, #8
 1870 0024 FFF7FEFF 		bl	hci_send_req
 1871              	.LVL140:
 1872 0028 0028     		cmp	r0, #0
 1873 002a 04DB     		blt	.L96
 654:Middlewares/ST/BlueNRG-MS/hci/controller/bluenrg_gap_aci.c ****     return BLE_STATUS_TIMEOUT;
 655:Middlewares/ST/BlueNRG-MS/hci/controller/bluenrg_gap_aci.c **** 
 656:Middlewares/ST/BlueNRG-MS/hci/controller/bluenrg_gap_aci.c ****   return status;
 1874              		.loc 1 656 0
 1875 002c 9DF80700 		ldrb	r0, [sp, #7]	@ zero_extendqisi2
 1876              	.L95:
 657:Middlewares/ST/BlueNRG-MS/hci/controller/bluenrg_gap_aci.c **** }
 1877              		.loc 1 657 0
 1878 0030 09B0     		add	sp, sp, #36
 1879              	.LCFI83:
ARM GAS  C:\Users\choee\AppData\Local\Temp\ccvdfN2I.s 			page 46


 1880              		.cfi_remember_state
 1881              		.cfi_def_cfa_offset 4
 1882              		@ sp needed
 1883 0032 5DF804FB 		ldr	pc, [sp], #4
 1884              	.L96:
 1885              	.LCFI84:
 1886              		.cfi_restore_state
 654:Middlewares/ST/BlueNRG-MS/hci/controller/bluenrg_gap_aci.c ****     return BLE_STATUS_TIMEOUT;
 1887              		.loc 1 654 0
 1888 0036 FF20     		movs	r0, #255
 1889 0038 FAE7     		b	.L95
 1890              		.cfi_endproc
 1891              	.LFE151:
 1893              		.section	.text.aci_gap_allow_rebond_IDB05A1,"ax",%progbits
 1894              		.align	1
 1895              		.global	aci_gap_allow_rebond_IDB05A1
 1896              		.syntax unified
 1897              		.thumb
 1898              		.thumb_func
 1899              		.fpu fpv4-sp-d16
 1901              	aci_gap_allow_rebond_IDB05A1:
 1902              	.LFB152:
 658:Middlewares/ST/BlueNRG-MS/hci/controller/bluenrg_gap_aci.c **** 
 659:Middlewares/ST/BlueNRG-MS/hci/controller/bluenrg_gap_aci.c **** tBleStatus aci_gap_allow_rebond_IDB05A1(uint16_t conn_handle)
 660:Middlewares/ST/BlueNRG-MS/hci/controller/bluenrg_gap_aci.c **** {
 1903              		.loc 1 660 0
 1904              		.cfi_startproc
 1905              		@ args = 0, pretend = 0, frame = 32
 1906              		@ frame_needed = 0, uses_anonymous_args = 0
 1907              	.LVL141:
 1908 0000 00B5     		push	{lr}
 1909              	.LCFI85:
 1910              		.cfi_def_cfa_offset 4
 1911              		.cfi_offset 14, -4
 1912 0002 89B0     		sub	sp, sp, #36
 1913              	.LCFI86:
 1914              		.cfi_def_cfa_offset 40
 661:Middlewares/ST/BlueNRG-MS/hci/controller/bluenrg_gap_aci.c ****   struct hci_request rq;
 662:Middlewares/ST/BlueNRG-MS/hci/controller/bluenrg_gap_aci.c ****   gap_allow_rebond_cp_IDB05A1 cp;
 663:Middlewares/ST/BlueNRG-MS/hci/controller/bluenrg_gap_aci.c ****   uint8_t status;
 664:Middlewares/ST/BlueNRG-MS/hci/controller/bluenrg_gap_aci.c ****   
 665:Middlewares/ST/BlueNRG-MS/hci/controller/bluenrg_gap_aci.c ****   cp.conn_handle = conn_handle;
 1915              		.loc 1 665 0
 1916 0004 ADF80400 		strh	r0, [sp, #4]	@ movhi
 666:Middlewares/ST/BlueNRG-MS/hci/controller/bluenrg_gap_aci.c ****   
 667:Middlewares/ST/BlueNRG-MS/hci/controller/bluenrg_gap_aci.c ****   BLUENRG_memset(&rq, 0, sizeof(rq));
 1917              		.loc 1 667 0
 1918 0008 0021     		movs	r1, #0
 1919 000a 0391     		str	r1, [sp, #12]
 668:Middlewares/ST/BlueNRG-MS/hci/controller/bluenrg_gap_aci.c ****   rq.ogf = OGF_VENDOR_CMD;
 1920              		.loc 1 668 0
 1921 000c 3F23     		movs	r3, #63
 1922 000e ADF80830 		strh	r3, [sp, #8]	@ movhi
 669:Middlewares/ST/BlueNRG-MS/hci/controller/bluenrg_gap_aci.c ****   rq.ocf = OCF_GAP_ALLOW_REBOND_DB;
 1923              		.loc 1 669 0
 1924 0012 9523     		movs	r3, #149
 1925 0014 ADF80A30 		strh	r3, [sp, #10]	@ movhi
ARM GAS  C:\Users\choee\AppData\Local\Temp\ccvdfN2I.s 			page 47


 670:Middlewares/ST/BlueNRG-MS/hci/controller/bluenrg_gap_aci.c ****   rq.cparam = &cp;
 1926              		.loc 1 670 0
 1927 0018 01AB     		add	r3, sp, #4
 1928 001a 0493     		str	r3, [sp, #16]
 671:Middlewares/ST/BlueNRG-MS/hci/controller/bluenrg_gap_aci.c ****   rq.clen = sizeof(cp);
 1929              		.loc 1 671 0
 1930 001c 0223     		movs	r3, #2
 1931 001e 0593     		str	r3, [sp, #20]
 672:Middlewares/ST/BlueNRG-MS/hci/controller/bluenrg_gap_aci.c ****   rq.rparam = &status;
 1932              		.loc 1 672 0
 1933 0020 0DF10303 		add	r3, sp, #3
 1934 0024 0693     		str	r3, [sp, #24]
 673:Middlewares/ST/BlueNRG-MS/hci/controller/bluenrg_gap_aci.c ****   rq.rlen = 1;
 1935              		.loc 1 673 0
 1936 0026 0123     		movs	r3, #1
 1937 0028 0793     		str	r3, [sp, #28]
 674:Middlewares/ST/BlueNRG-MS/hci/controller/bluenrg_gap_aci.c ****   
 675:Middlewares/ST/BlueNRG-MS/hci/controller/bluenrg_gap_aci.c ****   if (hci_send_req(&rq, FALSE) < 0)
 1938              		.loc 1 675 0
 1939 002a 02A8     		add	r0, sp, #8
 1940              	.LVL142:
 1941 002c FFF7FEFF 		bl	hci_send_req
 1942              	.LVL143:
 1943 0030 0028     		cmp	r0, #0
 1944 0032 04DB     		blt	.L100
 676:Middlewares/ST/BlueNRG-MS/hci/controller/bluenrg_gap_aci.c ****     return BLE_STATUS_TIMEOUT;
 677:Middlewares/ST/BlueNRG-MS/hci/controller/bluenrg_gap_aci.c **** 
 678:Middlewares/ST/BlueNRG-MS/hci/controller/bluenrg_gap_aci.c ****   return status;
 1945              		.loc 1 678 0
 1946 0034 9DF80300 		ldrb	r0, [sp, #3]	@ zero_extendqisi2
 1947              	.L99:
 679:Middlewares/ST/BlueNRG-MS/hci/controller/bluenrg_gap_aci.c **** }
 1948              		.loc 1 679 0
 1949 0038 09B0     		add	sp, sp, #36
 1950              	.LCFI87:
 1951              		.cfi_remember_state
 1952              		.cfi_def_cfa_offset 4
 1953              		@ sp needed
 1954 003a 5DF804FB 		ldr	pc, [sp], #4
 1955              	.L100:
 1956              	.LCFI88:
 1957              		.cfi_restore_state
 676:Middlewares/ST/BlueNRG-MS/hci/controller/bluenrg_gap_aci.c ****     return BLE_STATUS_TIMEOUT;
 1958              		.loc 1 676 0
 1959 003e FF20     		movs	r0, #255
 1960 0040 FAE7     		b	.L99
 1961              		.cfi_endproc
 1962              	.LFE152:
 1964              		.section	.text.aci_gap_allow_rebond_IDB04A1,"ax",%progbits
 1965              		.align	1
 1966              		.global	aci_gap_allow_rebond_IDB04A1
 1967              		.syntax unified
 1968              		.thumb
 1969              		.thumb_func
 1970              		.fpu fpv4-sp-d16
 1972              	aci_gap_allow_rebond_IDB04A1:
 1973              	.LFB153:
ARM GAS  C:\Users\choee\AppData\Local\Temp\ccvdfN2I.s 			page 48


 680:Middlewares/ST/BlueNRG-MS/hci/controller/bluenrg_gap_aci.c **** 
 681:Middlewares/ST/BlueNRG-MS/hci/controller/bluenrg_gap_aci.c **** tBleStatus aci_gap_allow_rebond_IDB04A1(void)
 682:Middlewares/ST/BlueNRG-MS/hci/controller/bluenrg_gap_aci.c **** {
 1974              		.loc 1 682 0
 1975              		.cfi_startproc
 1976              		@ args = 0, pretend = 0, frame = 32
 1977              		@ frame_needed = 0, uses_anonymous_args = 0
 1978 0000 00B5     		push	{lr}
 1979              	.LCFI89:
 1980              		.cfi_def_cfa_offset 4
 1981              		.cfi_offset 14, -4
 1982 0002 89B0     		sub	sp, sp, #36
 1983              	.LCFI90:
 1984              		.cfi_def_cfa_offset 40
 683:Middlewares/ST/BlueNRG-MS/hci/controller/bluenrg_gap_aci.c ****   struct hci_request rq;
 684:Middlewares/ST/BlueNRG-MS/hci/controller/bluenrg_gap_aci.c ****   uint8_t status;
 685:Middlewares/ST/BlueNRG-MS/hci/controller/bluenrg_gap_aci.c ****   
 686:Middlewares/ST/BlueNRG-MS/hci/controller/bluenrg_gap_aci.c ****   BLUENRG_memset(&rq, 0, sizeof(rq));
 1985              		.loc 1 686 0
 1986 0004 0021     		movs	r1, #0
 1987 0006 0391     		str	r1, [sp, #12]
 1988 0008 0491     		str	r1, [sp, #16]
 1989 000a 0591     		str	r1, [sp, #20]
 687:Middlewares/ST/BlueNRG-MS/hci/controller/bluenrg_gap_aci.c ****   rq.ogf = OGF_VENDOR_CMD;
 1990              		.loc 1 687 0
 1991 000c 3F23     		movs	r3, #63
 1992 000e ADF80830 		strh	r3, [sp, #8]	@ movhi
 688:Middlewares/ST/BlueNRG-MS/hci/controller/bluenrg_gap_aci.c ****   rq.ocf = OCF_GAP_ALLOW_REBOND_DB;
 1993              		.loc 1 688 0
 1994 0012 9523     		movs	r3, #149
 1995 0014 ADF80A30 		strh	r3, [sp, #10]	@ movhi
 689:Middlewares/ST/BlueNRG-MS/hci/controller/bluenrg_gap_aci.c ****   rq.rparam = &status;
 1996              		.loc 1 689 0
 1997 0018 0DF10703 		add	r3, sp, #7
 1998 001c 0693     		str	r3, [sp, #24]
 690:Middlewares/ST/BlueNRG-MS/hci/controller/bluenrg_gap_aci.c ****   rq.rlen = 1;
 1999              		.loc 1 690 0
 2000 001e 0123     		movs	r3, #1
 2001 0020 0793     		str	r3, [sp, #28]
 691:Middlewares/ST/BlueNRG-MS/hci/controller/bluenrg_gap_aci.c ****   
 692:Middlewares/ST/BlueNRG-MS/hci/controller/bluenrg_gap_aci.c ****   if (hci_send_req(&rq, FALSE) < 0)
 2002              		.loc 1 692 0
 2003 0022 02A8     		add	r0, sp, #8
 2004 0024 FFF7FEFF 		bl	hci_send_req
 2005              	.LVL144:
 2006 0028 0028     		cmp	r0, #0
 2007 002a 04DB     		blt	.L104
 693:Middlewares/ST/BlueNRG-MS/hci/controller/bluenrg_gap_aci.c ****     return BLE_STATUS_TIMEOUT;
 694:Middlewares/ST/BlueNRG-MS/hci/controller/bluenrg_gap_aci.c **** 
 695:Middlewares/ST/BlueNRG-MS/hci/controller/bluenrg_gap_aci.c ****   return status;
 2008              		.loc 1 695 0
 2009 002c 9DF80700 		ldrb	r0, [sp, #7]	@ zero_extendqisi2
 2010              	.L103:
 696:Middlewares/ST/BlueNRG-MS/hci/controller/bluenrg_gap_aci.c **** }
 2011              		.loc 1 696 0
 2012 0030 09B0     		add	sp, sp, #36
 2013              	.LCFI91:
ARM GAS  C:\Users\choee\AppData\Local\Temp\ccvdfN2I.s 			page 49


 2014              		.cfi_remember_state
 2015              		.cfi_def_cfa_offset 4
 2016              		@ sp needed
 2017 0032 5DF804FB 		ldr	pc, [sp], #4
 2018              	.L104:
 2019              	.LCFI92:
 2020              		.cfi_restore_state
 693:Middlewares/ST/BlueNRG-MS/hci/controller/bluenrg_gap_aci.c ****     return BLE_STATUS_TIMEOUT;
 2021              		.loc 1 693 0
 2022 0036 FF20     		movs	r0, #255
 2023 0038 FAE7     		b	.L103
 2024              		.cfi_endproc
 2025              	.LFE153:
 2027              		.section	.text.aci_gap_start_limited_discovery_proc,"ax",%progbits
 2028              		.align	1
 2029              		.global	aci_gap_start_limited_discovery_proc
 2030              		.syntax unified
 2031              		.thumb
 2032              		.thumb_func
 2033              		.fpu fpv4-sp-d16
 2035              	aci_gap_start_limited_discovery_proc:
 2036              	.LFB154:
 697:Middlewares/ST/BlueNRG-MS/hci/controller/bluenrg_gap_aci.c **** 
 698:Middlewares/ST/BlueNRG-MS/hci/controller/bluenrg_gap_aci.c **** tBleStatus aci_gap_start_limited_discovery_proc(uint16_t scanInterval, uint16_t scanWindow,
 699:Middlewares/ST/BlueNRG-MS/hci/controller/bluenrg_gap_aci.c **** 						uint8_t own_address_type, uint8_t filterDuplicates)
 700:Middlewares/ST/BlueNRG-MS/hci/controller/bluenrg_gap_aci.c **** {
 2037              		.loc 1 700 0
 2038              		.cfi_startproc
 2039              		@ args = 0, pretend = 0, frame = 40
 2040              		@ frame_needed = 0, uses_anonymous_args = 0
 2041              	.LVL145:
 2042 0000 00B5     		push	{lr}
 2043              	.LCFI93:
 2044              		.cfi_def_cfa_offset 4
 2045              		.cfi_offset 14, -4
 2046 0002 8BB0     		sub	sp, sp, #44
 2047              	.LCFI94:
 2048              		.cfi_def_cfa_offset 48
 701:Middlewares/ST/BlueNRG-MS/hci/controller/bluenrg_gap_aci.c ****   struct hci_request rq;
 702:Middlewares/ST/BlueNRG-MS/hci/controller/bluenrg_gap_aci.c ****   gap_start_limited_discovery_proc_cp cp;
 703:Middlewares/ST/BlueNRG-MS/hci/controller/bluenrg_gap_aci.c ****   uint8_t status;  
 704:Middlewares/ST/BlueNRG-MS/hci/controller/bluenrg_gap_aci.c **** 
 705:Middlewares/ST/BlueNRG-MS/hci/controller/bluenrg_gap_aci.c ****   cp.scanInterval = htobs(scanInterval);
 2049              		.loc 1 705 0
 2050 0004 ADF80800 		strh	r0, [sp, #8]	@ movhi
 706:Middlewares/ST/BlueNRG-MS/hci/controller/bluenrg_gap_aci.c ****   cp.scanWindow = htobs(scanWindow);
 2051              		.loc 1 706 0
 2052 0008 ADF80A10 		strh	r1, [sp, #10]	@ movhi
 707:Middlewares/ST/BlueNRG-MS/hci/controller/bluenrg_gap_aci.c ****   cp.own_address_type = own_address_type;
 2053              		.loc 1 707 0
 2054 000c 8DF80C20 		strb	r2, [sp, #12]
 708:Middlewares/ST/BlueNRG-MS/hci/controller/bluenrg_gap_aci.c ****   cp.filterDuplicates = filterDuplicates;
 2055              		.loc 1 708 0
 2056 0010 8DF80D30 		strb	r3, [sp, #13]
 709:Middlewares/ST/BlueNRG-MS/hci/controller/bluenrg_gap_aci.c **** 
 710:Middlewares/ST/BlueNRG-MS/hci/controller/bluenrg_gap_aci.c ****   BLUENRG_memset(&rq, 0, sizeof(rq));
 711:Middlewares/ST/BlueNRG-MS/hci/controller/bluenrg_gap_aci.c ****   rq.ogf = OGF_VENDOR_CMD;
ARM GAS  C:\Users\choee\AppData\Local\Temp\ccvdfN2I.s 			page 50


 2057              		.loc 1 711 0
 2058 0014 3F23     		movs	r3, #63
 2059              	.LVL146:
 2060 0016 ADF81030 		strh	r3, [sp, #16]	@ movhi
 712:Middlewares/ST/BlueNRG-MS/hci/controller/bluenrg_gap_aci.c ****   rq.ocf = OCF_GAP_START_LIMITED_DISCOVERY_PROC;
 2061              		.loc 1 712 0
 2062 001a 9623     		movs	r3, #150
 2063 001c ADF81230 		strh	r3, [sp, #18]	@ movhi
 713:Middlewares/ST/BlueNRG-MS/hci/controller/bluenrg_gap_aci.c ****   rq.cparam = &cp;
 2064              		.loc 1 713 0
 2065 0020 02AB     		add	r3, sp, #8
 2066 0022 0693     		str	r3, [sp, #24]
 714:Middlewares/ST/BlueNRG-MS/hci/controller/bluenrg_gap_aci.c ****   rq.clen = sizeof(cp);
 2067              		.loc 1 714 0
 2068 0024 0623     		movs	r3, #6
 2069 0026 0793     		str	r3, [sp, #28]
 715:Middlewares/ST/BlueNRG-MS/hci/controller/bluenrg_gap_aci.c ****   rq.event = EVT_CMD_STATUS;
 2070              		.loc 1 715 0
 2071 0028 0F23     		movs	r3, #15
 2072 002a 0593     		str	r3, [sp, #20]
 716:Middlewares/ST/BlueNRG-MS/hci/controller/bluenrg_gap_aci.c ****   rq.rparam = &status;
 2073              		.loc 1 716 0
 2074 002c 0DF10703 		add	r3, sp, #7
 2075 0030 0893     		str	r3, [sp, #32]
 717:Middlewares/ST/BlueNRG-MS/hci/controller/bluenrg_gap_aci.c ****   rq.rlen = 1;
 2076              		.loc 1 717 0
 2077 0032 0123     		movs	r3, #1
 2078 0034 0993     		str	r3, [sp, #36]
 718:Middlewares/ST/BlueNRG-MS/hci/controller/bluenrg_gap_aci.c ****   
 719:Middlewares/ST/BlueNRG-MS/hci/controller/bluenrg_gap_aci.c ****   if (hci_send_req(&rq, FALSE) < 0)
 2079              		.loc 1 719 0
 2080 0036 0021     		movs	r1, #0
 2081              	.LVL147:
 2082 0038 04A8     		add	r0, sp, #16
 2083              	.LVL148:
 2084 003a FFF7FEFF 		bl	hci_send_req
 2085              	.LVL149:
 2086 003e 0028     		cmp	r0, #0
 2087 0040 04DB     		blt	.L108
 720:Middlewares/ST/BlueNRG-MS/hci/controller/bluenrg_gap_aci.c ****     return BLE_STATUS_TIMEOUT;
 721:Middlewares/ST/BlueNRG-MS/hci/controller/bluenrg_gap_aci.c **** 
 722:Middlewares/ST/BlueNRG-MS/hci/controller/bluenrg_gap_aci.c ****   return status;
 2088              		.loc 1 722 0
 2089 0042 9DF80700 		ldrb	r0, [sp, #7]	@ zero_extendqisi2
 2090              	.L107:
 723:Middlewares/ST/BlueNRG-MS/hci/controller/bluenrg_gap_aci.c **** }
 2091              		.loc 1 723 0
 2092 0046 0BB0     		add	sp, sp, #44
 2093              	.LCFI95:
 2094              		.cfi_remember_state
 2095              		.cfi_def_cfa_offset 4
 2096              		@ sp needed
 2097 0048 5DF804FB 		ldr	pc, [sp], #4
 2098              	.L108:
 2099              	.LCFI96:
 2100              		.cfi_restore_state
 720:Middlewares/ST/BlueNRG-MS/hci/controller/bluenrg_gap_aci.c ****     return BLE_STATUS_TIMEOUT;
ARM GAS  C:\Users\choee\AppData\Local\Temp\ccvdfN2I.s 			page 51


 2101              		.loc 1 720 0
 2102 004c FF20     		movs	r0, #255
 2103 004e FAE7     		b	.L107
 2104              		.cfi_endproc
 2105              	.LFE154:
 2107              		.section	.text.aci_gap_start_general_discovery_proc,"ax",%progbits
 2108              		.align	1
 2109              		.global	aci_gap_start_general_discovery_proc
 2110              		.syntax unified
 2111              		.thumb
 2112              		.thumb_func
 2113              		.fpu fpv4-sp-d16
 2115              	aci_gap_start_general_discovery_proc:
 2116              	.LFB155:
 724:Middlewares/ST/BlueNRG-MS/hci/controller/bluenrg_gap_aci.c **** 
 725:Middlewares/ST/BlueNRG-MS/hci/controller/bluenrg_gap_aci.c **** tBleStatus aci_gap_start_general_discovery_proc(uint16_t scanInterval, uint16_t scanWindow,
 726:Middlewares/ST/BlueNRG-MS/hci/controller/bluenrg_gap_aci.c **** 						uint8_t own_address_type, uint8_t filterDuplicates)
 727:Middlewares/ST/BlueNRG-MS/hci/controller/bluenrg_gap_aci.c **** {
 2117              		.loc 1 727 0
 2118              		.cfi_startproc
 2119              		@ args = 0, pretend = 0, frame = 40
 2120              		@ frame_needed = 0, uses_anonymous_args = 0
 2121              	.LVL150:
 2122 0000 00B5     		push	{lr}
 2123              	.LCFI97:
 2124              		.cfi_def_cfa_offset 4
 2125              		.cfi_offset 14, -4
 2126 0002 8BB0     		sub	sp, sp, #44
 2127              	.LCFI98:
 2128              		.cfi_def_cfa_offset 48
 728:Middlewares/ST/BlueNRG-MS/hci/controller/bluenrg_gap_aci.c ****   struct hci_request rq;
 729:Middlewares/ST/BlueNRG-MS/hci/controller/bluenrg_gap_aci.c ****   gap_start_general_discovery_proc_cp cp;
 730:Middlewares/ST/BlueNRG-MS/hci/controller/bluenrg_gap_aci.c ****   uint8_t status;  
 731:Middlewares/ST/BlueNRG-MS/hci/controller/bluenrg_gap_aci.c **** 
 732:Middlewares/ST/BlueNRG-MS/hci/controller/bluenrg_gap_aci.c ****   cp.scanInterval = htobs(scanInterval);
 2129              		.loc 1 732 0
 2130 0004 ADF80800 		strh	r0, [sp, #8]	@ movhi
 733:Middlewares/ST/BlueNRG-MS/hci/controller/bluenrg_gap_aci.c ****   cp.scanWindow = htobs(scanWindow);
 2131              		.loc 1 733 0
 2132 0008 ADF80A10 		strh	r1, [sp, #10]	@ movhi
 734:Middlewares/ST/BlueNRG-MS/hci/controller/bluenrg_gap_aci.c ****   cp.own_address_type = own_address_type;
 2133              		.loc 1 734 0
 2134 000c 8DF80C20 		strb	r2, [sp, #12]
 735:Middlewares/ST/BlueNRG-MS/hci/controller/bluenrg_gap_aci.c ****   cp.filterDuplicates = filterDuplicates;
 2135              		.loc 1 735 0
 2136 0010 8DF80D30 		strb	r3, [sp, #13]
 736:Middlewares/ST/BlueNRG-MS/hci/controller/bluenrg_gap_aci.c **** 
 737:Middlewares/ST/BlueNRG-MS/hci/controller/bluenrg_gap_aci.c ****   BLUENRG_memset(&rq, 0, sizeof(rq));
 738:Middlewares/ST/BlueNRG-MS/hci/controller/bluenrg_gap_aci.c ****   rq.ogf = OGF_VENDOR_CMD;
 2137              		.loc 1 738 0
 2138 0014 3F23     		movs	r3, #63
 2139              	.LVL151:
 2140 0016 ADF81030 		strh	r3, [sp, #16]	@ movhi
 739:Middlewares/ST/BlueNRG-MS/hci/controller/bluenrg_gap_aci.c ****   rq.ocf = OCF_GAP_START_GENERAL_DISCOVERY_PROC;
 2141              		.loc 1 739 0
 2142 001a 9723     		movs	r3, #151
 2143 001c ADF81230 		strh	r3, [sp, #18]	@ movhi
ARM GAS  C:\Users\choee\AppData\Local\Temp\ccvdfN2I.s 			page 52


 740:Middlewares/ST/BlueNRG-MS/hci/controller/bluenrg_gap_aci.c ****   rq.cparam = &cp;
 2144              		.loc 1 740 0
 2145 0020 02AB     		add	r3, sp, #8
 2146 0022 0693     		str	r3, [sp, #24]
 741:Middlewares/ST/BlueNRG-MS/hci/controller/bluenrg_gap_aci.c ****   rq.clen = sizeof(cp);
 2147              		.loc 1 741 0
 2148 0024 0623     		movs	r3, #6
 2149 0026 0793     		str	r3, [sp, #28]
 742:Middlewares/ST/BlueNRG-MS/hci/controller/bluenrg_gap_aci.c ****   rq.event = EVT_CMD_STATUS;
 2150              		.loc 1 742 0
 2151 0028 0F23     		movs	r3, #15
 2152 002a 0593     		str	r3, [sp, #20]
 743:Middlewares/ST/BlueNRG-MS/hci/controller/bluenrg_gap_aci.c ****   rq.rparam = &status;
 2153              		.loc 1 743 0
 2154 002c 0DF10703 		add	r3, sp, #7
 2155 0030 0893     		str	r3, [sp, #32]
 744:Middlewares/ST/BlueNRG-MS/hci/controller/bluenrg_gap_aci.c ****   rq.rlen = 1;
 2156              		.loc 1 744 0
 2157 0032 0123     		movs	r3, #1
 2158 0034 0993     		str	r3, [sp, #36]
 745:Middlewares/ST/BlueNRG-MS/hci/controller/bluenrg_gap_aci.c ****   
 746:Middlewares/ST/BlueNRG-MS/hci/controller/bluenrg_gap_aci.c ****   if (hci_send_req(&rq, FALSE) < 0)
 2159              		.loc 1 746 0
 2160 0036 0021     		movs	r1, #0
 2161              	.LVL152:
 2162 0038 04A8     		add	r0, sp, #16
 2163              	.LVL153:
 2164 003a FFF7FEFF 		bl	hci_send_req
 2165              	.LVL154:
 2166 003e 0028     		cmp	r0, #0
 2167 0040 04DB     		blt	.L112
 747:Middlewares/ST/BlueNRG-MS/hci/controller/bluenrg_gap_aci.c ****     return BLE_STATUS_TIMEOUT;
 748:Middlewares/ST/BlueNRG-MS/hci/controller/bluenrg_gap_aci.c **** 
 749:Middlewares/ST/BlueNRG-MS/hci/controller/bluenrg_gap_aci.c ****   return status;
 2168              		.loc 1 749 0
 2169 0042 9DF80700 		ldrb	r0, [sp, #7]	@ zero_extendqisi2
 2170              	.L111:
 750:Middlewares/ST/BlueNRG-MS/hci/controller/bluenrg_gap_aci.c **** }
 2171              		.loc 1 750 0
 2172 0046 0BB0     		add	sp, sp, #44
 2173              	.LCFI99:
 2174              		.cfi_remember_state
 2175              		.cfi_def_cfa_offset 4
 2176              		@ sp needed
 2177 0048 5DF804FB 		ldr	pc, [sp], #4
 2178              	.L112:
 2179              	.LCFI100:
 2180              		.cfi_restore_state
 747:Middlewares/ST/BlueNRG-MS/hci/controller/bluenrg_gap_aci.c ****     return BLE_STATUS_TIMEOUT;
 2181              		.loc 1 747 0
 2182 004c FF20     		movs	r0, #255
 2183 004e FAE7     		b	.L111
 2184              		.cfi_endproc
 2185              	.LFE155:
 2187              		.section	.text.aci_gap_start_name_discovery_proc,"ax",%progbits
 2188              		.align	1
 2189              		.global	aci_gap_start_name_discovery_proc
ARM GAS  C:\Users\choee\AppData\Local\Temp\ccvdfN2I.s 			page 53


 2190              		.syntax unified
 2191              		.thumb
 2192              		.thumb_func
 2193              		.fpu fpv4-sp-d16
 2195              	aci_gap_start_name_discovery_proc:
 2196              	.LFB156:
 751:Middlewares/ST/BlueNRG-MS/hci/controller/bluenrg_gap_aci.c **** 
 752:Middlewares/ST/BlueNRG-MS/hci/controller/bluenrg_gap_aci.c **** 
 753:Middlewares/ST/BlueNRG-MS/hci/controller/bluenrg_gap_aci.c **** tBleStatus aci_gap_start_name_discovery_proc(uint16_t scanInterval, uint16_t scanWindow,
 754:Middlewares/ST/BlueNRG-MS/hci/controller/bluenrg_gap_aci.c **** 				     uint8_t peer_bdaddr_type, tBDAddr peer_bdaddr,	
 755:Middlewares/ST/BlueNRG-MS/hci/controller/bluenrg_gap_aci.c **** 				     uint8_t own_bdaddr_type, uint16_t conn_min_interval,	
 756:Middlewares/ST/BlueNRG-MS/hci/controller/bluenrg_gap_aci.c **** 				     uint16_t conn_max_interval, uint16_t conn_latency,	
 757:Middlewares/ST/BlueNRG-MS/hci/controller/bluenrg_gap_aci.c **** 				     uint16_t supervision_timeout, uint16_t min_conn_length, 
 758:Middlewares/ST/BlueNRG-MS/hci/controller/bluenrg_gap_aci.c **** 				     uint16_t max_conn_length)
 759:Middlewares/ST/BlueNRG-MS/hci/controller/bluenrg_gap_aci.c **** {
 2197              		.loc 1 759 0
 2198              		.cfi_startproc
 2199              		@ args = 28, pretend = 0, frame = 56
 2200              		@ frame_needed = 0, uses_anonymous_args = 0
 2201              	.LVL155:
 2202 0000 00B5     		push	{lr}
 2203              	.LCFI101:
 2204              		.cfi_def_cfa_offset 4
 2205              		.cfi_offset 14, -4
 2206 0002 8FB0     		sub	sp, sp, #60
 2207              	.LCFI102:
 2208              		.cfi_def_cfa_offset 64
 760:Middlewares/ST/BlueNRG-MS/hci/controller/bluenrg_gap_aci.c ****   struct hci_request rq;
 761:Middlewares/ST/BlueNRG-MS/hci/controller/bluenrg_gap_aci.c ****   gap_start_name_discovery_proc_cp cp;
 762:Middlewares/ST/BlueNRG-MS/hci/controller/bluenrg_gap_aci.c ****   uint8_t status;  
 763:Middlewares/ST/BlueNRG-MS/hci/controller/bluenrg_gap_aci.c **** 
 764:Middlewares/ST/BlueNRG-MS/hci/controller/bluenrg_gap_aci.c ****   cp.scanInterval = htobs(scanInterval);
 2209              		.loc 1 764 0
 2210 0004 ADF80800 		strh	r0, [sp, #8]	@ movhi
 765:Middlewares/ST/BlueNRG-MS/hci/controller/bluenrg_gap_aci.c ****   cp.scanWindow = htobs(scanWindow);
 2211              		.loc 1 765 0
 2212 0008 ADF80A10 		strh	r1, [sp, #10]	@ movhi
 766:Middlewares/ST/BlueNRG-MS/hci/controller/bluenrg_gap_aci.c ****   cp.peer_bdaddr_type = peer_bdaddr_type;
 2213              		.loc 1 766 0
 2214 000c 8DF80C20 		strb	r2, [sp, #12]
 767:Middlewares/ST/BlueNRG-MS/hci/controller/bluenrg_gap_aci.c ****   BLUENRG_memcpy(cp.peer_bdaddr, peer_bdaddr, 6);
 2215              		.loc 1 767 0
 2216 0010 1A68     		ldr	r2, [r3]	@ unaligned
 2217              	.LVL156:
 2218 0012 CDF80D20 		str	r2, [sp, #13]	@ unaligned
 2219 0016 9B88     		ldrh	r3, [r3, #4]	@ unaligned
 2220              	.LVL157:
 2221 0018 ADF81130 		strh	r3, [sp, #17]	@ unaligned
 768:Middlewares/ST/BlueNRG-MS/hci/controller/bluenrg_gap_aci.c ****   cp.own_bdaddr_type = own_bdaddr_type;
 2222              		.loc 1 768 0
 2223 001c 9DF84030 		ldrb	r3, [sp, #64]	@ zero_extendqisi2
 2224 0020 8DF81330 		strb	r3, [sp, #19]
 769:Middlewares/ST/BlueNRG-MS/hci/controller/bluenrg_gap_aci.c ****   cp.conn_min_interval = htobs(conn_min_interval);
 2225              		.loc 1 769 0
 2226 0024 BDF84430 		ldrh	r3, [sp, #68]
 2227 0028 ADF81430 		strh	r3, [sp, #20]	@ movhi
 770:Middlewares/ST/BlueNRG-MS/hci/controller/bluenrg_gap_aci.c ****   cp.conn_max_interval = htobs(conn_max_interval);
ARM GAS  C:\Users\choee\AppData\Local\Temp\ccvdfN2I.s 			page 54


 2228              		.loc 1 770 0
 2229 002c BDF84830 		ldrh	r3, [sp, #72]
 2230 0030 ADF81630 		strh	r3, [sp, #22]	@ movhi
 771:Middlewares/ST/BlueNRG-MS/hci/controller/bluenrg_gap_aci.c ****   cp.conn_latency = htobs(conn_latency);
 2231              		.loc 1 771 0
 2232 0034 BDF84C30 		ldrh	r3, [sp, #76]
 2233 0038 ADF81830 		strh	r3, [sp, #24]	@ movhi
 772:Middlewares/ST/BlueNRG-MS/hci/controller/bluenrg_gap_aci.c ****   cp.supervision_timeout = htobs(supervision_timeout);
 2234              		.loc 1 772 0
 2235 003c BDF85030 		ldrh	r3, [sp, #80]
 2236 0040 ADF81A30 		strh	r3, [sp, #26]	@ movhi
 773:Middlewares/ST/BlueNRG-MS/hci/controller/bluenrg_gap_aci.c ****   cp.min_conn_length = htobs(min_conn_length);
 2237              		.loc 1 773 0
 2238 0044 BDF85430 		ldrh	r3, [sp, #84]
 2239 0048 ADF81C30 		strh	r3, [sp, #28]	@ movhi
 774:Middlewares/ST/BlueNRG-MS/hci/controller/bluenrg_gap_aci.c ****   cp.max_conn_length = htobs(max_conn_length);
 2240              		.loc 1 774 0
 2241 004c BDF85830 		ldrh	r3, [sp, #88]
 2242 0050 ADF81E30 		strh	r3, [sp, #30]	@ movhi
 775:Middlewares/ST/BlueNRG-MS/hci/controller/bluenrg_gap_aci.c **** 
 776:Middlewares/ST/BlueNRG-MS/hci/controller/bluenrg_gap_aci.c ****   BLUENRG_memset(&rq, 0, sizeof(rq));
 777:Middlewares/ST/BlueNRG-MS/hci/controller/bluenrg_gap_aci.c ****   rq.ogf = OGF_VENDOR_CMD;
 2243              		.loc 1 777 0
 2244 0054 3F23     		movs	r3, #63
 2245 0056 ADF82030 		strh	r3, [sp, #32]	@ movhi
 778:Middlewares/ST/BlueNRG-MS/hci/controller/bluenrg_gap_aci.c ****   rq.ocf = OCF_GAP_START_NAME_DISCOVERY_PROC;
 2246              		.loc 1 778 0
 2247 005a 9823     		movs	r3, #152
 2248 005c ADF82230 		strh	r3, [sp, #34]	@ movhi
 779:Middlewares/ST/BlueNRG-MS/hci/controller/bluenrg_gap_aci.c ****   rq.cparam = &cp;
 2249              		.loc 1 779 0
 2250 0060 02AB     		add	r3, sp, #8
 2251 0062 0A93     		str	r3, [sp, #40]
 780:Middlewares/ST/BlueNRG-MS/hci/controller/bluenrg_gap_aci.c ****   rq.clen = sizeof(cp);
 2252              		.loc 1 780 0
 2253 0064 1823     		movs	r3, #24
 2254 0066 0B93     		str	r3, [sp, #44]
 781:Middlewares/ST/BlueNRG-MS/hci/controller/bluenrg_gap_aci.c ****   rq.event = EVT_CMD_STATUS;
 2255              		.loc 1 781 0
 2256 0068 0F23     		movs	r3, #15
 2257 006a 0993     		str	r3, [sp, #36]
 782:Middlewares/ST/BlueNRG-MS/hci/controller/bluenrg_gap_aci.c ****   rq.rparam = &status;
 2258              		.loc 1 782 0
 2259 006c 0DF10703 		add	r3, sp, #7
 2260 0070 0C93     		str	r3, [sp, #48]
 783:Middlewares/ST/BlueNRG-MS/hci/controller/bluenrg_gap_aci.c ****   rq.rlen = 1;
 2261              		.loc 1 783 0
 2262 0072 0123     		movs	r3, #1
 2263 0074 0D93     		str	r3, [sp, #52]
 784:Middlewares/ST/BlueNRG-MS/hci/controller/bluenrg_gap_aci.c ****   
 785:Middlewares/ST/BlueNRG-MS/hci/controller/bluenrg_gap_aci.c ****   if (hci_send_req(&rq, FALSE) < 0)
 2264              		.loc 1 785 0
 2265 0076 0021     		movs	r1, #0
 2266              	.LVL158:
 2267 0078 08A8     		add	r0, sp, #32
 2268              	.LVL159:
 2269 007a FFF7FEFF 		bl	hci_send_req
ARM GAS  C:\Users\choee\AppData\Local\Temp\ccvdfN2I.s 			page 55


 2270              	.LVL160:
 2271 007e 0028     		cmp	r0, #0
 2272 0080 04DB     		blt	.L116
 786:Middlewares/ST/BlueNRG-MS/hci/controller/bluenrg_gap_aci.c ****     return BLE_STATUS_TIMEOUT;
 787:Middlewares/ST/BlueNRG-MS/hci/controller/bluenrg_gap_aci.c **** 
 788:Middlewares/ST/BlueNRG-MS/hci/controller/bluenrg_gap_aci.c ****   return status;
 2273              		.loc 1 788 0
 2274 0082 9DF80700 		ldrb	r0, [sp, #7]	@ zero_extendqisi2
 2275              	.L115:
 789:Middlewares/ST/BlueNRG-MS/hci/controller/bluenrg_gap_aci.c **** }
 2276              		.loc 1 789 0
 2277 0086 0FB0     		add	sp, sp, #60
 2278              	.LCFI103:
 2279              		.cfi_remember_state
 2280              		.cfi_def_cfa_offset 4
 2281              		@ sp needed
 2282 0088 5DF804FB 		ldr	pc, [sp], #4
 2283              	.LVL161:
 2284              	.L116:
 2285              	.LCFI104:
 2286              		.cfi_restore_state
 786:Middlewares/ST/BlueNRG-MS/hci/controller/bluenrg_gap_aci.c ****     return BLE_STATUS_TIMEOUT;
 2287              		.loc 1 786 0
 2288 008c FF20     		movs	r0, #255
 2289 008e FAE7     		b	.L115
 2290              		.cfi_endproc
 2291              	.LFE156:
 2293              		.section	.text.aci_gap_start_auto_conn_establish_proc_IDB05A1,"ax",%progbits
 2294              		.align	1
 2295              		.global	aci_gap_start_auto_conn_establish_proc_IDB05A1
 2296              		.syntax unified
 2297              		.thumb
 2298              		.thumb_func
 2299              		.fpu fpv4-sp-d16
 2301              	aci_gap_start_auto_conn_establish_proc_IDB05A1:
 2302              	.LFB157:
 790:Middlewares/ST/BlueNRG-MS/hci/controller/bluenrg_gap_aci.c **** 
 791:Middlewares/ST/BlueNRG-MS/hci/controller/bluenrg_gap_aci.c **** tBleStatus aci_gap_start_auto_conn_establish_proc_IDB05A1(uint16_t scanInterval, uint16_t scanWindo
 792:Middlewares/ST/BlueNRG-MS/hci/controller/bluenrg_gap_aci.c **** 						 uint8_t own_bdaddr_type, uint16_t conn_min_interval,	
 793:Middlewares/ST/BlueNRG-MS/hci/controller/bluenrg_gap_aci.c **** 						 uint16_t conn_max_interval, uint16_t conn_latency,	
 794:Middlewares/ST/BlueNRG-MS/hci/controller/bluenrg_gap_aci.c **** 						 uint16_t supervision_timeout, uint16_t min_conn_length, 
 795:Middlewares/ST/BlueNRG-MS/hci/controller/bluenrg_gap_aci.c **** 						 uint16_t max_conn_length,
 796:Middlewares/ST/BlueNRG-MS/hci/controller/bluenrg_gap_aci.c ****                          uint8_t num_whitelist_entries,
 797:Middlewares/ST/BlueNRG-MS/hci/controller/bluenrg_gap_aci.c ****                          const uint8_t *addr_array)
 798:Middlewares/ST/BlueNRG-MS/hci/controller/bluenrg_gap_aci.c **** {
 2303              		.loc 1 798 0
 2304              		.cfi_startproc
 2305              		@ args = 28, pretend = 0, frame = 160
 2306              		@ frame_needed = 0, uses_anonymous_args = 0
 2307              	.LVL162:
 2308 0000 70B5     		push	{r4, r5, r6, lr}
 2309              	.LCFI105:
 2310              		.cfi_def_cfa_offset 16
 2311              		.cfi_offset 4, -16
 2312              		.cfi_offset 5, -12
 2313              		.cfi_offset 6, -8
 2314              		.cfi_offset 14, -4
ARM GAS  C:\Users\choee\AppData\Local\Temp\ccvdfN2I.s 			page 56


 2315 0002 A8B0     		sub	sp, sp, #160
 2316              	.LCFI106:
 2317              		.cfi_def_cfa_offset 176
 2318 0004 9DF8C440 		ldrb	r4, [sp, #196]	@ zero_extendqisi2
 2319              	.LVL163:
 799:Middlewares/ST/BlueNRG-MS/hci/controller/bluenrg_gap_aci.c ****   struct hci_request rq;
 800:Middlewares/ST/BlueNRG-MS/hci/controller/bluenrg_gap_aci.c ****   uint8_t status;
 801:Middlewares/ST/BlueNRG-MS/hci/controller/bluenrg_gap_aci.c ****   uint8_t buffer[HCI_MAX_PAYLOAD_SIZE];
 802:Middlewares/ST/BlueNRG-MS/hci/controller/bluenrg_gap_aci.c ****   uint8_t indx = 0;
 803:Middlewares/ST/BlueNRG-MS/hci/controller/bluenrg_gap_aci.c ****     
 804:Middlewares/ST/BlueNRG-MS/hci/controller/bluenrg_gap_aci.c ****   if (((num_whitelist_entries*7)+25) > HCI_MAX_PAYLOAD_SIZE)
 2320              		.loc 1 804 0
 2321 0008 C4EBC405 		rsb	r5, r4, r4, lsl #3
 2322 000c 05F11906 		add	r6, r5, #25
 2323 0010 802E     		cmp	r6, #128
 2324 0012 02DD     		ble	.L123
 805:Middlewares/ST/BlueNRG-MS/hci/controller/bluenrg_gap_aci.c ****     return BLE_STATUS_INVALID_PARAMS;
 2325              		.loc 1 805 0
 2326 0014 4220     		movs	r0, #66
 2327              	.LVL164:
 2328              	.L119:
 806:Middlewares/ST/BlueNRG-MS/hci/controller/bluenrg_gap_aci.c **** 
 807:Middlewares/ST/BlueNRG-MS/hci/controller/bluenrg_gap_aci.c ****   scanInterval = htobs(scanInterval);
 808:Middlewares/ST/BlueNRG-MS/hci/controller/bluenrg_gap_aci.c ****   BLUENRG_memcpy(buffer + indx, &scanInterval, 2);
 809:Middlewares/ST/BlueNRG-MS/hci/controller/bluenrg_gap_aci.c ****   indx += 2;
 810:Middlewares/ST/BlueNRG-MS/hci/controller/bluenrg_gap_aci.c ****     
 811:Middlewares/ST/BlueNRG-MS/hci/controller/bluenrg_gap_aci.c ****   scanWindow = htobs(scanWindow);
 812:Middlewares/ST/BlueNRG-MS/hci/controller/bluenrg_gap_aci.c ****   BLUENRG_memcpy(buffer + indx, &scanWindow, 2);
 813:Middlewares/ST/BlueNRG-MS/hci/controller/bluenrg_gap_aci.c ****   indx += 2;
 814:Middlewares/ST/BlueNRG-MS/hci/controller/bluenrg_gap_aci.c **** 
 815:Middlewares/ST/BlueNRG-MS/hci/controller/bluenrg_gap_aci.c ****   buffer[indx] = own_bdaddr_type;
 816:Middlewares/ST/BlueNRG-MS/hci/controller/bluenrg_gap_aci.c ****   indx++;
 817:Middlewares/ST/BlueNRG-MS/hci/controller/bluenrg_gap_aci.c ****   
 818:Middlewares/ST/BlueNRG-MS/hci/controller/bluenrg_gap_aci.c ****   conn_min_interval = htobs(conn_min_interval);
 819:Middlewares/ST/BlueNRG-MS/hci/controller/bluenrg_gap_aci.c ****   BLUENRG_memcpy(buffer + indx, &conn_min_interval, 2);
 820:Middlewares/ST/BlueNRG-MS/hci/controller/bluenrg_gap_aci.c ****   indx +=  2;
 821:Middlewares/ST/BlueNRG-MS/hci/controller/bluenrg_gap_aci.c **** 
 822:Middlewares/ST/BlueNRG-MS/hci/controller/bluenrg_gap_aci.c ****   conn_max_interval = htobs(conn_max_interval);
 823:Middlewares/ST/BlueNRG-MS/hci/controller/bluenrg_gap_aci.c ****   BLUENRG_memcpy(buffer + indx, &conn_max_interval, 2);
 824:Middlewares/ST/BlueNRG-MS/hci/controller/bluenrg_gap_aci.c ****   indx +=  2;
 825:Middlewares/ST/BlueNRG-MS/hci/controller/bluenrg_gap_aci.c **** 
 826:Middlewares/ST/BlueNRG-MS/hci/controller/bluenrg_gap_aci.c ****   conn_latency = htobs(conn_latency);
 827:Middlewares/ST/BlueNRG-MS/hci/controller/bluenrg_gap_aci.c ****   BLUENRG_memcpy(buffer + indx, &conn_latency, 2);
 828:Middlewares/ST/BlueNRG-MS/hci/controller/bluenrg_gap_aci.c ****   indx +=  2;
 829:Middlewares/ST/BlueNRG-MS/hci/controller/bluenrg_gap_aci.c **** 
 830:Middlewares/ST/BlueNRG-MS/hci/controller/bluenrg_gap_aci.c ****   supervision_timeout = htobs(supervision_timeout);
 831:Middlewares/ST/BlueNRG-MS/hci/controller/bluenrg_gap_aci.c ****   BLUENRG_memcpy(buffer + indx, &supervision_timeout, 2);
 832:Middlewares/ST/BlueNRG-MS/hci/controller/bluenrg_gap_aci.c ****   indx +=  2;
 833:Middlewares/ST/BlueNRG-MS/hci/controller/bluenrg_gap_aci.c **** 
 834:Middlewares/ST/BlueNRG-MS/hci/controller/bluenrg_gap_aci.c ****   min_conn_length = htobs(min_conn_length);
 835:Middlewares/ST/BlueNRG-MS/hci/controller/bluenrg_gap_aci.c ****   BLUENRG_memcpy(buffer + indx, &min_conn_length, 2);
 836:Middlewares/ST/BlueNRG-MS/hci/controller/bluenrg_gap_aci.c ****   indx +=  2;
 837:Middlewares/ST/BlueNRG-MS/hci/controller/bluenrg_gap_aci.c **** 
 838:Middlewares/ST/BlueNRG-MS/hci/controller/bluenrg_gap_aci.c ****   max_conn_length = htobs(max_conn_length);
 839:Middlewares/ST/BlueNRG-MS/hci/controller/bluenrg_gap_aci.c ****   BLUENRG_memcpy(buffer + indx, &max_conn_length, 2);
 840:Middlewares/ST/BlueNRG-MS/hci/controller/bluenrg_gap_aci.c ****   indx +=  2;
 841:Middlewares/ST/BlueNRG-MS/hci/controller/bluenrg_gap_aci.c **** 
ARM GAS  C:\Users\choee\AppData\Local\Temp\ccvdfN2I.s 			page 57


 842:Middlewares/ST/BlueNRG-MS/hci/controller/bluenrg_gap_aci.c ****   buffer[indx] = num_whitelist_entries;
 843:Middlewares/ST/BlueNRG-MS/hci/controller/bluenrg_gap_aci.c ****   indx++;
 844:Middlewares/ST/BlueNRG-MS/hci/controller/bluenrg_gap_aci.c **** 
 845:Middlewares/ST/BlueNRG-MS/hci/controller/bluenrg_gap_aci.c ****   BLUENRG_memcpy(buffer + indx, addr_array, (num_whitelist_entries*7));
 846:Middlewares/ST/BlueNRG-MS/hci/controller/bluenrg_gap_aci.c ****   indx +=  num_whitelist_entries * 7;
 847:Middlewares/ST/BlueNRG-MS/hci/controller/bluenrg_gap_aci.c **** 
 848:Middlewares/ST/BlueNRG-MS/hci/controller/bluenrg_gap_aci.c ****   BLUENRG_memset(&rq, 0, sizeof(rq));
 849:Middlewares/ST/BlueNRG-MS/hci/controller/bluenrg_gap_aci.c ****   rq.ogf = OGF_VENDOR_CMD;
 850:Middlewares/ST/BlueNRG-MS/hci/controller/bluenrg_gap_aci.c ****   rq.ocf = OCF_GAP_START_AUTO_CONN_ESTABLISH_PROC;
 851:Middlewares/ST/BlueNRG-MS/hci/controller/bluenrg_gap_aci.c ****   rq.cparam = (void *)buffer;
 852:Middlewares/ST/BlueNRG-MS/hci/controller/bluenrg_gap_aci.c ****   rq.clen = indx;
 853:Middlewares/ST/BlueNRG-MS/hci/controller/bluenrg_gap_aci.c ****   rq.event = EVT_CMD_STATUS;
 854:Middlewares/ST/BlueNRG-MS/hci/controller/bluenrg_gap_aci.c ****   rq.rparam = &status;
 855:Middlewares/ST/BlueNRG-MS/hci/controller/bluenrg_gap_aci.c ****   rq.rlen = 1;
 856:Middlewares/ST/BlueNRG-MS/hci/controller/bluenrg_gap_aci.c **** 
 857:Middlewares/ST/BlueNRG-MS/hci/controller/bluenrg_gap_aci.c ****   if (hci_send_req(&rq, FALSE) < 0)
 858:Middlewares/ST/BlueNRG-MS/hci/controller/bluenrg_gap_aci.c ****     return BLE_STATUS_TIMEOUT;
 859:Middlewares/ST/BlueNRG-MS/hci/controller/bluenrg_gap_aci.c **** 
 860:Middlewares/ST/BlueNRG-MS/hci/controller/bluenrg_gap_aci.c ****   return status;  
 861:Middlewares/ST/BlueNRG-MS/hci/controller/bluenrg_gap_aci.c **** }
 2329              		.loc 1 861 0
 2330 0016 28B0     		add	sp, sp, #160
 2331              	.LCFI107:
 2332              		.cfi_remember_state
 2333              		.cfi_def_cfa_offset 16
 2334              		@ sp needed
 2335 0018 70BD     		pop	{r4, r5, r6, pc}
 2336              	.LVL165:
 2337              	.L123:
 2338              	.LCFI108:
 2339              		.cfi_restore_state
 808:Middlewares/ST/BlueNRG-MS/hci/controller/bluenrg_gap_aci.c ****   indx += 2;
 2340              		.loc 1 808 0
 2341 001a ADF80400 		strh	r0, [sp, #4]	@ movhi
 2342              	.LVL166:
 812:Middlewares/ST/BlueNRG-MS/hci/controller/bluenrg_gap_aci.c ****   indx += 2;
 2343              		.loc 1 812 0
 2344 001e ADF80610 		strh	r1, [sp, #6]	@ movhi
 2345              	.LVL167:
 815:Middlewares/ST/BlueNRG-MS/hci/controller/bluenrg_gap_aci.c ****   indx++;
 2346              		.loc 1 815 0
 2347 0022 8DF80820 		strb	r2, [sp, #8]
 2348              	.LVL168:
 819:Middlewares/ST/BlueNRG-MS/hci/controller/bluenrg_gap_aci.c ****   indx +=  2;
 2349              		.loc 1 819 0
 2350 0026 ADF80930 		strh	r3, [sp, #9]	@ unaligned
 2351              	.LVL169:
 823:Middlewares/ST/BlueNRG-MS/hci/controller/bluenrg_gap_aci.c ****   indx +=  2;
 2352              		.loc 1 823 0
 2353 002a BDF8B030 		ldrh	r3, [sp, #176]
 2354              	.LVL170:
 2355 002e ADF80B30 		strh	r3, [sp, #11]	@ unaligned
 2356              	.LVL171:
 827:Middlewares/ST/BlueNRG-MS/hci/controller/bluenrg_gap_aci.c ****   indx +=  2;
 2357              		.loc 1 827 0
 2358 0032 BDF8B430 		ldrh	r3, [sp, #180]
 2359 0036 ADF80D30 		strh	r3, [sp, #13]	@ unaligned
ARM GAS  C:\Users\choee\AppData\Local\Temp\ccvdfN2I.s 			page 58


 2360              	.LVL172:
 831:Middlewares/ST/BlueNRG-MS/hci/controller/bluenrg_gap_aci.c ****   indx +=  2;
 2361              		.loc 1 831 0
 2362 003a BDF8B830 		ldrh	r3, [sp, #184]
 2363 003e ADF80F30 		strh	r3, [sp, #15]	@ unaligned
 2364              	.LVL173:
 835:Middlewares/ST/BlueNRG-MS/hci/controller/bluenrg_gap_aci.c ****   indx +=  2;
 2365              		.loc 1 835 0
 2366 0042 BDF8BC30 		ldrh	r3, [sp, #188]
 2367 0046 ADF81130 		strh	r3, [sp, #17]	@ unaligned
 2368              	.LVL174:
 839:Middlewares/ST/BlueNRG-MS/hci/controller/bluenrg_gap_aci.c ****   indx +=  2;
 2369              		.loc 1 839 0
 2370 004a BDF8C030 		ldrh	r3, [sp, #192]
 2371 004e ADF81330 		strh	r3, [sp, #19]	@ unaligned
 2372              	.LVL175:
 842:Middlewares/ST/BlueNRG-MS/hci/controller/bluenrg_gap_aci.c ****   indx++;
 2373              		.loc 1 842 0
 2374 0052 8DF81540 		strb	r4, [sp, #21]
 2375              	.LVL176:
 845:Middlewares/ST/BlueNRG-MS/hci/controller/bluenrg_gap_aci.c ****   indx +=  num_whitelist_entries * 7;
 2376              		.loc 1 845 0
 2377 0056 2A46     		mov	r2, r5
 2378              	.LVL177:
 2379 0058 3299     		ldr	r1, [sp, #200]
 2380              	.LVL178:
 2381 005a 0DF11600 		add	r0, sp, #22
 2382              	.LVL179:
 2383 005e FFF7FEFF 		bl	memcpy
 2384              	.LVL180:
 846:Middlewares/ST/BlueNRG-MS/hci/controller/bluenrg_gap_aci.c **** 
 2385              		.loc 1 846 0
 2386 0062 EBB2     		uxtb	r3, r5
 2387 0064 1233     		adds	r3, r3, #18
 2388 0066 DBB2     		uxtb	r3, r3
 2389              	.LVL181:
 849:Middlewares/ST/BlueNRG-MS/hci/controller/bluenrg_gap_aci.c ****   rq.ocf = OCF_GAP_START_AUTO_CONN_ESTABLISH_PROC;
 2390              		.loc 1 849 0
 2391 0068 3F22     		movs	r2, #63
 2392 006a ADF88820 		strh	r2, [sp, #136]	@ movhi
 850:Middlewares/ST/BlueNRG-MS/hci/controller/bluenrg_gap_aci.c ****   rq.cparam = (void *)buffer;
 2393              		.loc 1 850 0
 2394 006e 9922     		movs	r2, #153
 2395 0070 ADF88A20 		strh	r2, [sp, #138]	@ movhi
 851:Middlewares/ST/BlueNRG-MS/hci/controller/bluenrg_gap_aci.c ****   rq.clen = indx;
 2396              		.loc 1 851 0
 2397 0074 01AA     		add	r2, sp, #4
 2398 0076 2492     		str	r2, [sp, #144]
 852:Middlewares/ST/BlueNRG-MS/hci/controller/bluenrg_gap_aci.c ****   rq.event = EVT_CMD_STATUS;
 2399              		.loc 1 852 0
 2400 0078 2593     		str	r3, [sp, #148]
 853:Middlewares/ST/BlueNRG-MS/hci/controller/bluenrg_gap_aci.c ****   rq.rparam = &status;
 2401              		.loc 1 853 0
 2402 007a 0F23     		movs	r3, #15
 2403              	.LVL182:
 2404 007c 2393     		str	r3, [sp, #140]
 854:Middlewares/ST/BlueNRG-MS/hci/controller/bluenrg_gap_aci.c ****   rq.rlen = 1;
ARM GAS  C:\Users\choee\AppData\Local\Temp\ccvdfN2I.s 			page 59


 2405              		.loc 1 854 0
 2406 007e 0DF18703 		add	r3, sp, #135
 2407 0082 2693     		str	r3, [sp, #152]
 855:Middlewares/ST/BlueNRG-MS/hci/controller/bluenrg_gap_aci.c **** 
 2408              		.loc 1 855 0
 2409 0084 0123     		movs	r3, #1
 2410 0086 2793     		str	r3, [sp, #156]
 857:Middlewares/ST/BlueNRG-MS/hci/controller/bluenrg_gap_aci.c ****     return BLE_STATUS_TIMEOUT;
 2411              		.loc 1 857 0
 2412 0088 0021     		movs	r1, #0
 2413 008a 22A8     		add	r0, sp, #136
 2414 008c FFF7FEFF 		bl	hci_send_req
 2415              	.LVL183:
 2416 0090 0028     		cmp	r0, #0
 2417 0092 02DB     		blt	.L121
 860:Middlewares/ST/BlueNRG-MS/hci/controller/bluenrg_gap_aci.c **** }
 2418              		.loc 1 860 0
 2419 0094 9DF88700 		ldrb	r0, [sp, #135]	@ zero_extendqisi2
 2420 0098 BDE7     		b	.L119
 2421              	.L121:
 858:Middlewares/ST/BlueNRG-MS/hci/controller/bluenrg_gap_aci.c **** 
 2422              		.loc 1 858 0
 2423 009a FF20     		movs	r0, #255
 2424 009c BBE7     		b	.L119
 2425              		.cfi_endproc
 2426              	.LFE157:
 2428              		.section	.text.aci_gap_start_auto_conn_establish_proc_IDB04A1,"ax",%progbits
 2429              		.align	1
 2430              		.global	aci_gap_start_auto_conn_establish_proc_IDB04A1
 2431              		.syntax unified
 2432              		.thumb
 2433              		.thumb_func
 2434              		.fpu fpv4-sp-d16
 2436              	aci_gap_start_auto_conn_establish_proc_IDB04A1:
 2437              	.LFB158:
 862:Middlewares/ST/BlueNRG-MS/hci/controller/bluenrg_gap_aci.c **** 
 863:Middlewares/ST/BlueNRG-MS/hci/controller/bluenrg_gap_aci.c **** tBleStatus aci_gap_start_auto_conn_establish_proc_IDB04A1(uint16_t scanInterval, uint16_t scanWindo
 864:Middlewares/ST/BlueNRG-MS/hci/controller/bluenrg_gap_aci.c **** 						 uint8_t own_bdaddr_type, uint16_t conn_min_interval,	
 865:Middlewares/ST/BlueNRG-MS/hci/controller/bluenrg_gap_aci.c **** 						 uint16_t conn_max_interval, uint16_t conn_latency,	
 866:Middlewares/ST/BlueNRG-MS/hci/controller/bluenrg_gap_aci.c **** 						 uint16_t supervision_timeout, uint16_t min_conn_length, 
 867:Middlewares/ST/BlueNRG-MS/hci/controller/bluenrg_gap_aci.c **** 						 uint16_t max_conn_length,
 868:Middlewares/ST/BlueNRG-MS/hci/controller/bluenrg_gap_aci.c ****                          uint8_t use_reconn_addr,
 869:Middlewares/ST/BlueNRG-MS/hci/controller/bluenrg_gap_aci.c ****                          const tBDAddr reconn_addr,
 870:Middlewares/ST/BlueNRG-MS/hci/controller/bluenrg_gap_aci.c ****                          uint8_t num_whitelist_entries,
 871:Middlewares/ST/BlueNRG-MS/hci/controller/bluenrg_gap_aci.c ****                          const uint8_t *addr_array)
 872:Middlewares/ST/BlueNRG-MS/hci/controller/bluenrg_gap_aci.c **** {
 2438              		.loc 1 872 0
 2439              		.cfi_startproc
 2440              		@ args = 36, pretend = 0, frame = 160
 2441              		@ frame_needed = 0, uses_anonymous_args = 0
 2442              	.LVL184:
 2443 0000 70B5     		push	{r4, r5, r6, lr}
 2444              	.LCFI109:
 2445              		.cfi_def_cfa_offset 16
 2446              		.cfi_offset 4, -16
 2447              		.cfi_offset 5, -12
 2448              		.cfi_offset 6, -8
ARM GAS  C:\Users\choee\AppData\Local\Temp\ccvdfN2I.s 			page 60


 2449              		.cfi_offset 14, -4
 2450 0002 A8B0     		sub	sp, sp, #160
 2451              	.LCFI110:
 2452              		.cfi_def_cfa_offset 176
 2453 0004 9DF8CC40 		ldrb	r4, [sp, #204]	@ zero_extendqisi2
 2454              	.LVL185:
 873:Middlewares/ST/BlueNRG-MS/hci/controller/bluenrg_gap_aci.c ****   struct hci_request rq;
 874:Middlewares/ST/BlueNRG-MS/hci/controller/bluenrg_gap_aci.c ****   uint8_t status;
 875:Middlewares/ST/BlueNRG-MS/hci/controller/bluenrg_gap_aci.c ****   uint8_t buffer[HCI_MAX_PAYLOAD_SIZE];
 876:Middlewares/ST/BlueNRG-MS/hci/controller/bluenrg_gap_aci.c ****   uint8_t indx = 0;
 877:Middlewares/ST/BlueNRG-MS/hci/controller/bluenrg_gap_aci.c ****     
 878:Middlewares/ST/BlueNRG-MS/hci/controller/bluenrg_gap_aci.c ****   if (((num_whitelist_entries*7)+25) > HCI_MAX_PAYLOAD_SIZE)
 2455              		.loc 1 878 0
 2456 0008 C4EBC405 		rsb	r5, r4, r4, lsl #3
 2457 000c 05F11906 		add	r6, r5, #25
 2458 0010 802E     		cmp	r6, #128
 2459 0012 02DD     		ble	.L129
 879:Middlewares/ST/BlueNRG-MS/hci/controller/bluenrg_gap_aci.c ****     return BLE_STATUS_INVALID_PARAMS;
 2460              		.loc 1 879 0
 2461 0014 4220     		movs	r0, #66
 2462              	.LVL186:
 2463              	.L125:
 880:Middlewares/ST/BlueNRG-MS/hci/controller/bluenrg_gap_aci.c **** 
 881:Middlewares/ST/BlueNRG-MS/hci/controller/bluenrg_gap_aci.c ****   scanInterval = htobs(scanInterval);
 882:Middlewares/ST/BlueNRG-MS/hci/controller/bluenrg_gap_aci.c ****   BLUENRG_memcpy(buffer + indx, &scanInterval, 2);
 883:Middlewares/ST/BlueNRG-MS/hci/controller/bluenrg_gap_aci.c ****   indx += 2;
 884:Middlewares/ST/BlueNRG-MS/hci/controller/bluenrg_gap_aci.c ****     
 885:Middlewares/ST/BlueNRG-MS/hci/controller/bluenrg_gap_aci.c ****   scanWindow = htobs(scanWindow);
 886:Middlewares/ST/BlueNRG-MS/hci/controller/bluenrg_gap_aci.c ****   BLUENRG_memcpy(buffer + indx, &scanWindow, 2);
 887:Middlewares/ST/BlueNRG-MS/hci/controller/bluenrg_gap_aci.c ****   indx += 2;
 888:Middlewares/ST/BlueNRG-MS/hci/controller/bluenrg_gap_aci.c **** 
 889:Middlewares/ST/BlueNRG-MS/hci/controller/bluenrg_gap_aci.c ****   buffer[indx] = own_bdaddr_type;
 890:Middlewares/ST/BlueNRG-MS/hci/controller/bluenrg_gap_aci.c ****   indx++;
 891:Middlewares/ST/BlueNRG-MS/hci/controller/bluenrg_gap_aci.c ****   
 892:Middlewares/ST/BlueNRG-MS/hci/controller/bluenrg_gap_aci.c ****   conn_min_interval = htobs(conn_min_interval);
 893:Middlewares/ST/BlueNRG-MS/hci/controller/bluenrg_gap_aci.c ****   BLUENRG_memcpy(buffer + indx, &conn_min_interval, 2);
 894:Middlewares/ST/BlueNRG-MS/hci/controller/bluenrg_gap_aci.c ****   indx +=  2;
 895:Middlewares/ST/BlueNRG-MS/hci/controller/bluenrg_gap_aci.c **** 
 896:Middlewares/ST/BlueNRG-MS/hci/controller/bluenrg_gap_aci.c ****   conn_max_interval = htobs(conn_max_interval);
 897:Middlewares/ST/BlueNRG-MS/hci/controller/bluenrg_gap_aci.c ****   BLUENRG_memcpy(buffer + indx, &conn_max_interval, 2);
 898:Middlewares/ST/BlueNRG-MS/hci/controller/bluenrg_gap_aci.c ****   indx +=  2;
 899:Middlewares/ST/BlueNRG-MS/hci/controller/bluenrg_gap_aci.c **** 
 900:Middlewares/ST/BlueNRG-MS/hci/controller/bluenrg_gap_aci.c ****   conn_latency = htobs(conn_latency);
 901:Middlewares/ST/BlueNRG-MS/hci/controller/bluenrg_gap_aci.c ****   BLUENRG_memcpy(buffer + indx, &conn_latency, 2);
 902:Middlewares/ST/BlueNRG-MS/hci/controller/bluenrg_gap_aci.c ****   indx +=  2;
 903:Middlewares/ST/BlueNRG-MS/hci/controller/bluenrg_gap_aci.c **** 
 904:Middlewares/ST/BlueNRG-MS/hci/controller/bluenrg_gap_aci.c ****   supervision_timeout = htobs(supervision_timeout);
 905:Middlewares/ST/BlueNRG-MS/hci/controller/bluenrg_gap_aci.c ****   BLUENRG_memcpy(buffer + indx, &supervision_timeout, 2);
 906:Middlewares/ST/BlueNRG-MS/hci/controller/bluenrg_gap_aci.c ****   indx +=  2;
 907:Middlewares/ST/BlueNRG-MS/hci/controller/bluenrg_gap_aci.c **** 
 908:Middlewares/ST/BlueNRG-MS/hci/controller/bluenrg_gap_aci.c ****   min_conn_length = htobs(min_conn_length);
 909:Middlewares/ST/BlueNRG-MS/hci/controller/bluenrg_gap_aci.c ****   BLUENRG_memcpy(buffer + indx, &min_conn_length, 2);
 910:Middlewares/ST/BlueNRG-MS/hci/controller/bluenrg_gap_aci.c ****   indx +=  2;
 911:Middlewares/ST/BlueNRG-MS/hci/controller/bluenrg_gap_aci.c **** 
 912:Middlewares/ST/BlueNRG-MS/hci/controller/bluenrg_gap_aci.c ****   max_conn_length = htobs(max_conn_length);
 913:Middlewares/ST/BlueNRG-MS/hci/controller/bluenrg_gap_aci.c ****   BLUENRG_memcpy(buffer + indx, &max_conn_length, 2);
 914:Middlewares/ST/BlueNRG-MS/hci/controller/bluenrg_gap_aci.c ****   indx +=  2;
ARM GAS  C:\Users\choee\AppData\Local\Temp\ccvdfN2I.s 			page 61


 915:Middlewares/ST/BlueNRG-MS/hci/controller/bluenrg_gap_aci.c ****   
 916:Middlewares/ST/BlueNRG-MS/hci/controller/bluenrg_gap_aci.c ****   buffer[indx] = use_reconn_addr;
 917:Middlewares/ST/BlueNRG-MS/hci/controller/bluenrg_gap_aci.c ****   indx++;
 918:Middlewares/ST/BlueNRG-MS/hci/controller/bluenrg_gap_aci.c **** 
 919:Middlewares/ST/BlueNRG-MS/hci/controller/bluenrg_gap_aci.c ****   BLUENRG_memcpy(buffer + indx, reconn_addr, 6);
 920:Middlewares/ST/BlueNRG-MS/hci/controller/bluenrg_gap_aci.c ****   indx += 6;
 921:Middlewares/ST/BlueNRG-MS/hci/controller/bluenrg_gap_aci.c **** 
 922:Middlewares/ST/BlueNRG-MS/hci/controller/bluenrg_gap_aci.c ****   buffer[indx] = num_whitelist_entries;
 923:Middlewares/ST/BlueNRG-MS/hci/controller/bluenrg_gap_aci.c ****   indx++;
 924:Middlewares/ST/BlueNRG-MS/hci/controller/bluenrg_gap_aci.c **** 
 925:Middlewares/ST/BlueNRG-MS/hci/controller/bluenrg_gap_aci.c ****   BLUENRG_memcpy(buffer + indx, addr_array, (num_whitelist_entries*7));
 926:Middlewares/ST/BlueNRG-MS/hci/controller/bluenrg_gap_aci.c ****   indx +=  num_whitelist_entries * 7;
 927:Middlewares/ST/BlueNRG-MS/hci/controller/bluenrg_gap_aci.c **** 
 928:Middlewares/ST/BlueNRG-MS/hci/controller/bluenrg_gap_aci.c ****   BLUENRG_memset(&rq, 0, sizeof(rq));
 929:Middlewares/ST/BlueNRG-MS/hci/controller/bluenrg_gap_aci.c ****   rq.ogf = OGF_VENDOR_CMD;
 930:Middlewares/ST/BlueNRG-MS/hci/controller/bluenrg_gap_aci.c ****   rq.ocf = OCF_GAP_START_AUTO_CONN_ESTABLISH_PROC;
 931:Middlewares/ST/BlueNRG-MS/hci/controller/bluenrg_gap_aci.c ****   rq.cparam = (void *)buffer;
 932:Middlewares/ST/BlueNRG-MS/hci/controller/bluenrg_gap_aci.c ****   rq.clen = indx;
 933:Middlewares/ST/BlueNRG-MS/hci/controller/bluenrg_gap_aci.c ****   rq.event = EVT_CMD_STATUS;
 934:Middlewares/ST/BlueNRG-MS/hci/controller/bluenrg_gap_aci.c ****   rq.rparam = &status;
 935:Middlewares/ST/BlueNRG-MS/hci/controller/bluenrg_gap_aci.c ****   rq.rlen = 1;
 936:Middlewares/ST/BlueNRG-MS/hci/controller/bluenrg_gap_aci.c **** 
 937:Middlewares/ST/BlueNRG-MS/hci/controller/bluenrg_gap_aci.c ****   if (hci_send_req(&rq, FALSE) < 0)
 938:Middlewares/ST/BlueNRG-MS/hci/controller/bluenrg_gap_aci.c ****     return BLE_STATUS_TIMEOUT;
 939:Middlewares/ST/BlueNRG-MS/hci/controller/bluenrg_gap_aci.c **** 
 940:Middlewares/ST/BlueNRG-MS/hci/controller/bluenrg_gap_aci.c ****   return status;  
 941:Middlewares/ST/BlueNRG-MS/hci/controller/bluenrg_gap_aci.c **** }
 2464              		.loc 1 941 0
 2465 0016 28B0     		add	sp, sp, #160
 2466              	.LCFI111:
 2467              		.cfi_remember_state
 2468              		.cfi_def_cfa_offset 16
 2469              		@ sp needed
 2470 0018 70BD     		pop	{r4, r5, r6, pc}
 2471              	.LVL187:
 2472              	.L129:
 2473              	.LCFI112:
 2474              		.cfi_restore_state
 882:Middlewares/ST/BlueNRG-MS/hci/controller/bluenrg_gap_aci.c ****   indx += 2;
 2475              		.loc 1 882 0
 2476 001a ADF80400 		strh	r0, [sp, #4]	@ movhi
 2477              	.LVL188:
 886:Middlewares/ST/BlueNRG-MS/hci/controller/bluenrg_gap_aci.c ****   indx += 2;
 2478              		.loc 1 886 0
 2479 001e ADF80610 		strh	r1, [sp, #6]	@ movhi
 2480              	.LVL189:
 889:Middlewares/ST/BlueNRG-MS/hci/controller/bluenrg_gap_aci.c ****   indx++;
 2481              		.loc 1 889 0
 2482 0022 8DF80820 		strb	r2, [sp, #8]
 2483              	.LVL190:
 893:Middlewares/ST/BlueNRG-MS/hci/controller/bluenrg_gap_aci.c ****   indx +=  2;
 2484              		.loc 1 893 0
 2485 0026 ADF80930 		strh	r3, [sp, #9]	@ unaligned
 2486              	.LVL191:
 897:Middlewares/ST/BlueNRG-MS/hci/controller/bluenrg_gap_aci.c ****   indx +=  2;
 2487              		.loc 1 897 0
 2488 002a BDF8B030 		ldrh	r3, [sp, #176]
ARM GAS  C:\Users\choee\AppData\Local\Temp\ccvdfN2I.s 			page 62


 2489              	.LVL192:
 2490 002e ADF80B30 		strh	r3, [sp, #11]	@ unaligned
 2491              	.LVL193:
 901:Middlewares/ST/BlueNRG-MS/hci/controller/bluenrg_gap_aci.c ****   indx +=  2;
 2492              		.loc 1 901 0
 2493 0032 BDF8B430 		ldrh	r3, [sp, #180]
 2494 0036 ADF80D30 		strh	r3, [sp, #13]	@ unaligned
 2495              	.LVL194:
 905:Middlewares/ST/BlueNRG-MS/hci/controller/bluenrg_gap_aci.c ****   indx +=  2;
 2496              		.loc 1 905 0
 2497 003a BDF8B830 		ldrh	r3, [sp, #184]
 2498 003e ADF80F30 		strh	r3, [sp, #15]	@ unaligned
 2499              	.LVL195:
 909:Middlewares/ST/BlueNRG-MS/hci/controller/bluenrg_gap_aci.c ****   indx +=  2;
 2500              		.loc 1 909 0
 2501 0042 BDF8BC30 		ldrh	r3, [sp, #188]
 2502 0046 ADF81130 		strh	r3, [sp, #17]	@ unaligned
 2503              	.LVL196:
 913:Middlewares/ST/BlueNRG-MS/hci/controller/bluenrg_gap_aci.c ****   indx +=  2;
 2504              		.loc 1 913 0
 2505 004a BDF8C030 		ldrh	r3, [sp, #192]
 2506 004e ADF81330 		strh	r3, [sp, #19]	@ unaligned
 2507              	.LVL197:
 916:Middlewares/ST/BlueNRG-MS/hci/controller/bluenrg_gap_aci.c ****   indx++;
 2508              		.loc 1 916 0
 2509 0052 9DF8C430 		ldrb	r3, [sp, #196]	@ zero_extendqisi2
 2510 0056 8DF81530 		strb	r3, [sp, #21]
 2511              	.LVL198:
 919:Middlewares/ST/BlueNRG-MS/hci/controller/bluenrg_gap_aci.c ****   indx += 6;
 2512              		.loc 1 919 0
 2513 005a 329B     		ldr	r3, [sp, #200]
 2514 005c 1B68     		ldr	r3, [r3]	@ unaligned
 2515 005e CDF81630 		str	r3, [sp, #22]	@ unaligned
 2516 0062 329B     		ldr	r3, [sp, #200]
 2517 0064 9B88     		ldrh	r3, [r3, #4]	@ unaligned
 2518 0066 ADF81A30 		strh	r3, [sp, #26]	@ unaligned
 2519              	.LVL199:
 922:Middlewares/ST/BlueNRG-MS/hci/controller/bluenrg_gap_aci.c ****   indx++;
 2520              		.loc 1 922 0
 2521 006a 8DF81C40 		strb	r4, [sp, #28]
 2522              	.LVL200:
 925:Middlewares/ST/BlueNRG-MS/hci/controller/bluenrg_gap_aci.c ****   indx +=  num_whitelist_entries * 7;
 2523              		.loc 1 925 0
 2524 006e 2A46     		mov	r2, r5
 2525              	.LVL201:
 2526 0070 3499     		ldr	r1, [sp, #208]
 2527              	.LVL202:
 2528 0072 0DF11D00 		add	r0, sp, #29
 2529              	.LVL203:
 2530 0076 FFF7FEFF 		bl	memcpy
 2531              	.LVL204:
 926:Middlewares/ST/BlueNRG-MS/hci/controller/bluenrg_gap_aci.c **** 
 2532              		.loc 1 926 0
 2533 007a EBB2     		uxtb	r3, r5
 2534 007c 1933     		adds	r3, r3, #25
 2535 007e DBB2     		uxtb	r3, r3
 2536              	.LVL205:
ARM GAS  C:\Users\choee\AppData\Local\Temp\ccvdfN2I.s 			page 63


 929:Middlewares/ST/BlueNRG-MS/hci/controller/bluenrg_gap_aci.c ****   rq.ocf = OCF_GAP_START_AUTO_CONN_ESTABLISH_PROC;
 2537              		.loc 1 929 0
 2538 0080 3F22     		movs	r2, #63
 2539 0082 ADF88820 		strh	r2, [sp, #136]	@ movhi
 930:Middlewares/ST/BlueNRG-MS/hci/controller/bluenrg_gap_aci.c ****   rq.cparam = (void *)buffer;
 2540              		.loc 1 930 0
 2541 0086 9922     		movs	r2, #153
 2542 0088 ADF88A20 		strh	r2, [sp, #138]	@ movhi
 931:Middlewares/ST/BlueNRG-MS/hci/controller/bluenrg_gap_aci.c ****   rq.clen = indx;
 2543              		.loc 1 931 0
 2544 008c 01AA     		add	r2, sp, #4
 2545 008e 2492     		str	r2, [sp, #144]
 932:Middlewares/ST/BlueNRG-MS/hci/controller/bluenrg_gap_aci.c ****   rq.event = EVT_CMD_STATUS;
 2546              		.loc 1 932 0
 2547 0090 2593     		str	r3, [sp, #148]
 933:Middlewares/ST/BlueNRG-MS/hci/controller/bluenrg_gap_aci.c ****   rq.rparam = &status;
 2548              		.loc 1 933 0
 2549 0092 0F23     		movs	r3, #15
 2550              	.LVL206:
 2551 0094 2393     		str	r3, [sp, #140]
 934:Middlewares/ST/BlueNRG-MS/hci/controller/bluenrg_gap_aci.c ****   rq.rlen = 1;
 2552              		.loc 1 934 0
 2553 0096 0DF18703 		add	r3, sp, #135
 2554 009a 2693     		str	r3, [sp, #152]
 935:Middlewares/ST/BlueNRG-MS/hci/controller/bluenrg_gap_aci.c **** 
 2555              		.loc 1 935 0
 2556 009c 0123     		movs	r3, #1
 2557 009e 2793     		str	r3, [sp, #156]
 937:Middlewares/ST/BlueNRG-MS/hci/controller/bluenrg_gap_aci.c ****     return BLE_STATUS_TIMEOUT;
 2558              		.loc 1 937 0
 2559 00a0 0021     		movs	r1, #0
 2560 00a2 22A8     		add	r0, sp, #136
 2561 00a4 FFF7FEFF 		bl	hci_send_req
 2562              	.LVL207:
 2563 00a8 0028     		cmp	r0, #0
 2564 00aa 02DB     		blt	.L127
 940:Middlewares/ST/BlueNRG-MS/hci/controller/bluenrg_gap_aci.c **** }
 2565              		.loc 1 940 0
 2566 00ac 9DF88700 		ldrb	r0, [sp, #135]	@ zero_extendqisi2
 2567 00b0 B1E7     		b	.L125
 2568              	.L127:
 938:Middlewares/ST/BlueNRG-MS/hci/controller/bluenrg_gap_aci.c **** 
 2569              		.loc 1 938 0
 2570 00b2 FF20     		movs	r0, #255
 2571 00b4 AFE7     		b	.L125
 2572              		.cfi_endproc
 2573              	.LFE158:
 2575              		.section	.text.aci_gap_start_general_conn_establish_proc_IDB05A1,"ax",%progbits
 2576              		.align	1
 2577              		.global	aci_gap_start_general_conn_establish_proc_IDB05A1
 2578              		.syntax unified
 2579              		.thumb
 2580              		.thumb_func
 2581              		.fpu fpv4-sp-d16
 2583              	aci_gap_start_general_conn_establish_proc_IDB05A1:
 2584              	.LFB159:
 942:Middlewares/ST/BlueNRG-MS/hci/controller/bluenrg_gap_aci.c **** 
ARM GAS  C:\Users\choee\AppData\Local\Temp\ccvdfN2I.s 			page 64


 943:Middlewares/ST/BlueNRG-MS/hci/controller/bluenrg_gap_aci.c **** tBleStatus aci_gap_start_general_conn_establish_proc_IDB05A1(uint8_t scan_type, uint16_t scan_inter
 944:Middlewares/ST/BlueNRG-MS/hci/controller/bluenrg_gap_aci.c **** 						 uint8_t own_address_type, uint8_t filter_duplicates)
 945:Middlewares/ST/BlueNRG-MS/hci/controller/bluenrg_gap_aci.c **** {
 2585              		.loc 1 945 0
 2586              		.cfi_startproc
 2587              		@ args = 4, pretend = 0, frame = 40
 2588              		@ frame_needed = 0, uses_anonymous_args = 0
 2589              	.LVL208:
 2590 0000 00B5     		push	{lr}
 2591              	.LCFI113:
 2592              		.cfi_def_cfa_offset 4
 2593              		.cfi_offset 14, -4
 2594 0002 8BB0     		sub	sp, sp, #44
 2595              	.LCFI114:
 2596              		.cfi_def_cfa_offset 48
 946:Middlewares/ST/BlueNRG-MS/hci/controller/bluenrg_gap_aci.c ****   struct hci_request rq;
 947:Middlewares/ST/BlueNRG-MS/hci/controller/bluenrg_gap_aci.c ****   gap_start_general_conn_establish_proc_cp_IDB05A1 cp;
 948:Middlewares/ST/BlueNRG-MS/hci/controller/bluenrg_gap_aci.c ****   uint8_t status;  
 949:Middlewares/ST/BlueNRG-MS/hci/controller/bluenrg_gap_aci.c **** 
 950:Middlewares/ST/BlueNRG-MS/hci/controller/bluenrg_gap_aci.c ****   cp.scan_type = scan_type;
 2597              		.loc 1 950 0
 2598 0004 8DF80800 		strb	r0, [sp, #8]
 951:Middlewares/ST/BlueNRG-MS/hci/controller/bluenrg_gap_aci.c ****   cp.scan_interval = htobs(scan_interval);
 2599              		.loc 1 951 0
 2600 0008 ADF80910 		strh	r1, [sp, #9]	@ unaligned
 952:Middlewares/ST/BlueNRG-MS/hci/controller/bluenrg_gap_aci.c ****   cp.scan_window = htobs(scan_window);
 2601              		.loc 1 952 0
 2602 000c ADF80B20 		strh	r2, [sp, #11]	@ unaligned
 953:Middlewares/ST/BlueNRG-MS/hci/controller/bluenrg_gap_aci.c ****   cp.own_address_type = own_address_type;
 2603              		.loc 1 953 0
 2604 0010 8DF80D30 		strb	r3, [sp, #13]
 954:Middlewares/ST/BlueNRG-MS/hci/controller/bluenrg_gap_aci.c ****   cp.filter_duplicates = filter_duplicates;
 2605              		.loc 1 954 0
 2606 0014 9DF83030 		ldrb	r3, [sp, #48]	@ zero_extendqisi2
 2607              	.LVL209:
 2608 0018 8DF80E30 		strb	r3, [sp, #14]
 955:Middlewares/ST/BlueNRG-MS/hci/controller/bluenrg_gap_aci.c **** 
 956:Middlewares/ST/BlueNRG-MS/hci/controller/bluenrg_gap_aci.c ****   BLUENRG_memset(&rq, 0, sizeof(rq));
 957:Middlewares/ST/BlueNRG-MS/hci/controller/bluenrg_gap_aci.c ****   rq.ogf = OGF_VENDOR_CMD;
 2609              		.loc 1 957 0
 2610 001c 3F23     		movs	r3, #63
 2611 001e ADF81030 		strh	r3, [sp, #16]	@ movhi
 958:Middlewares/ST/BlueNRG-MS/hci/controller/bluenrg_gap_aci.c ****   rq.ocf = OCF_GAP_START_GENERAL_CONN_ESTABLISH_PROC;
 2612              		.loc 1 958 0
 2613 0022 9A23     		movs	r3, #154
 2614 0024 ADF81230 		strh	r3, [sp, #18]	@ movhi
 959:Middlewares/ST/BlueNRG-MS/hci/controller/bluenrg_gap_aci.c ****   rq.cparam = &cp;
 2615              		.loc 1 959 0
 2616 0028 02AB     		add	r3, sp, #8
 2617 002a 0693     		str	r3, [sp, #24]
 960:Middlewares/ST/BlueNRG-MS/hci/controller/bluenrg_gap_aci.c ****   rq.clen = sizeof(cp);
 2618              		.loc 1 960 0
 2619 002c 0723     		movs	r3, #7
 2620 002e 0793     		str	r3, [sp, #28]
 961:Middlewares/ST/BlueNRG-MS/hci/controller/bluenrg_gap_aci.c ****   rq.event = EVT_CMD_STATUS;
 2621              		.loc 1 961 0
 2622 0030 0F23     		movs	r3, #15
ARM GAS  C:\Users\choee\AppData\Local\Temp\ccvdfN2I.s 			page 65


 2623 0032 0593     		str	r3, [sp, #20]
 962:Middlewares/ST/BlueNRG-MS/hci/controller/bluenrg_gap_aci.c ****   rq.rparam = &status;
 2624              		.loc 1 962 0
 2625 0034 0DF10703 		add	r3, sp, #7
 2626 0038 0893     		str	r3, [sp, #32]
 963:Middlewares/ST/BlueNRG-MS/hci/controller/bluenrg_gap_aci.c ****   rq.rlen = 1;
 2627              		.loc 1 963 0
 2628 003a 0123     		movs	r3, #1
 2629 003c 0993     		str	r3, [sp, #36]
 964:Middlewares/ST/BlueNRG-MS/hci/controller/bluenrg_gap_aci.c ****   
 965:Middlewares/ST/BlueNRG-MS/hci/controller/bluenrg_gap_aci.c ****   if (hci_send_req(&rq, FALSE) < 0)
 2630              		.loc 1 965 0
 2631 003e 0021     		movs	r1, #0
 2632              	.LVL210:
 2633 0040 04A8     		add	r0, sp, #16
 2634              	.LVL211:
 2635 0042 FFF7FEFF 		bl	hci_send_req
 2636              	.LVL212:
 2637 0046 0028     		cmp	r0, #0
 2638 0048 04DB     		blt	.L132
 966:Middlewares/ST/BlueNRG-MS/hci/controller/bluenrg_gap_aci.c ****     return BLE_STATUS_TIMEOUT;
 967:Middlewares/ST/BlueNRG-MS/hci/controller/bluenrg_gap_aci.c **** 
 968:Middlewares/ST/BlueNRG-MS/hci/controller/bluenrg_gap_aci.c ****   return status;
 2639              		.loc 1 968 0
 2640 004a 9DF80700 		ldrb	r0, [sp, #7]	@ zero_extendqisi2
 2641              	.L131:
 969:Middlewares/ST/BlueNRG-MS/hci/controller/bluenrg_gap_aci.c **** }
 2642              		.loc 1 969 0
 2643 004e 0BB0     		add	sp, sp, #44
 2644              	.LCFI115:
 2645              		.cfi_remember_state
 2646              		.cfi_def_cfa_offset 4
 2647              		@ sp needed
 2648 0050 5DF804FB 		ldr	pc, [sp], #4
 2649              	.LVL213:
 2650              	.L132:
 2651              	.LCFI116:
 2652              		.cfi_restore_state
 966:Middlewares/ST/BlueNRG-MS/hci/controller/bluenrg_gap_aci.c ****     return BLE_STATUS_TIMEOUT;
 2653              		.loc 1 966 0
 2654 0054 FF20     		movs	r0, #255
 2655 0056 FAE7     		b	.L131
 2656              		.cfi_endproc
 2657              	.LFE159:
 2659              		.section	.text.aci_gap_start_general_conn_establish_proc_IDB04A1,"ax",%progbits
 2660              		.align	1
 2661              		.global	aci_gap_start_general_conn_establish_proc_IDB04A1
 2662              		.syntax unified
 2663              		.thumb
 2664              		.thumb_func
 2665              		.fpu fpv4-sp-d16
 2667              	aci_gap_start_general_conn_establish_proc_IDB04A1:
 2668              	.LFB160:
 970:Middlewares/ST/BlueNRG-MS/hci/controller/bluenrg_gap_aci.c **** 
 971:Middlewares/ST/BlueNRG-MS/hci/controller/bluenrg_gap_aci.c **** tBleStatus aci_gap_start_general_conn_establish_proc_IDB04A1(uint8_t scan_type, uint16_t scan_inter
 972:Middlewares/ST/BlueNRG-MS/hci/controller/bluenrg_gap_aci.c **** 						 uint8_t own_address_type, uint8_t filter_duplicates, uint8_t use_reconn_addr, const tBDAddr 
 973:Middlewares/ST/BlueNRG-MS/hci/controller/bluenrg_gap_aci.c **** {
ARM GAS  C:\Users\choee\AppData\Local\Temp\ccvdfN2I.s 			page 66


 2669              		.loc 1 973 0
 2670              		.cfi_startproc
 2671              		@ args = 12, pretend = 0, frame = 48
 2672              		@ frame_needed = 0, uses_anonymous_args = 0
 2673              	.LVL214:
 2674 0000 10B5     		push	{r4, lr}
 2675              	.LCFI117:
 2676              		.cfi_def_cfa_offset 8
 2677              		.cfi_offset 4, -8
 2678              		.cfi_offset 14, -4
 2679 0002 8CB0     		sub	sp, sp, #48
 2680              	.LCFI118:
 2681              		.cfi_def_cfa_offset 56
 2682 0004 109C     		ldr	r4, [sp, #64]
 974:Middlewares/ST/BlueNRG-MS/hci/controller/bluenrg_gap_aci.c ****   struct hci_request rq;
 975:Middlewares/ST/BlueNRG-MS/hci/controller/bluenrg_gap_aci.c ****   gap_start_general_conn_establish_proc_cp_IDB04A1 cp;
 976:Middlewares/ST/BlueNRG-MS/hci/controller/bluenrg_gap_aci.c ****   uint8_t status;  
 977:Middlewares/ST/BlueNRG-MS/hci/controller/bluenrg_gap_aci.c **** 
 978:Middlewares/ST/BlueNRG-MS/hci/controller/bluenrg_gap_aci.c ****   cp.scan_type = scan_type;
 2683              		.loc 1 978 0
 2684 0006 8DF80800 		strb	r0, [sp, #8]
 979:Middlewares/ST/BlueNRG-MS/hci/controller/bluenrg_gap_aci.c ****   cp.scan_interval = htobs(scan_interval);
 2685              		.loc 1 979 0
 2686 000a ADF80910 		strh	r1, [sp, #9]	@ unaligned
 980:Middlewares/ST/BlueNRG-MS/hci/controller/bluenrg_gap_aci.c ****   cp.scan_window = htobs(scan_window);
 2687              		.loc 1 980 0
 2688 000e ADF80B20 		strh	r2, [sp, #11]	@ unaligned
 981:Middlewares/ST/BlueNRG-MS/hci/controller/bluenrg_gap_aci.c ****   cp.own_address_type = own_address_type;
 2689              		.loc 1 981 0
 2690 0012 8DF80D30 		strb	r3, [sp, #13]
 982:Middlewares/ST/BlueNRG-MS/hci/controller/bluenrg_gap_aci.c ****   cp.filter_duplicates = filter_duplicates;
 2691              		.loc 1 982 0
 2692 0016 9DF83830 		ldrb	r3, [sp, #56]	@ zero_extendqisi2
 2693              	.LVL215:
 2694 001a 8DF80E30 		strb	r3, [sp, #14]
 983:Middlewares/ST/BlueNRG-MS/hci/controller/bluenrg_gap_aci.c ****   cp.use_reconn_addr = use_reconn_addr;
 2695              		.loc 1 983 0
 2696 001e 9DF83C30 		ldrb	r3, [sp, #60]	@ zero_extendqisi2
 2697 0022 8DF80F30 		strb	r3, [sp, #15]
 984:Middlewares/ST/BlueNRG-MS/hci/controller/bluenrg_gap_aci.c ****   BLUENRG_memcpy(cp.reconn_addr, reconn_addr, 6);
 2698              		.loc 1 984 0
 2699 0026 2068     		ldr	r0, [r4]	@ unaligned
 2700              	.LVL216:
 2701 0028 0490     		str	r0, [sp, #16]
 2702 002a A388     		ldrh	r3, [r4, #4]	@ unaligned
 2703 002c ADF81430 		strh	r3, [sp, #20]	@ unaligned
 985:Middlewares/ST/BlueNRG-MS/hci/controller/bluenrg_gap_aci.c **** 
 986:Middlewares/ST/BlueNRG-MS/hci/controller/bluenrg_gap_aci.c ****   BLUENRG_memset(&rq, 0, sizeof(rq));
 987:Middlewares/ST/BlueNRG-MS/hci/controller/bluenrg_gap_aci.c ****   rq.ogf = OGF_VENDOR_CMD;
 2704              		.loc 1 987 0
 2705 0030 3F23     		movs	r3, #63
 2706 0032 ADF81830 		strh	r3, [sp, #24]	@ movhi
 988:Middlewares/ST/BlueNRG-MS/hci/controller/bluenrg_gap_aci.c ****   rq.ocf = OCF_GAP_START_GENERAL_CONN_ESTABLISH_PROC;
 2707              		.loc 1 988 0
 2708 0036 9A23     		movs	r3, #154
 2709 0038 ADF81A30 		strh	r3, [sp, #26]	@ movhi
 989:Middlewares/ST/BlueNRG-MS/hci/controller/bluenrg_gap_aci.c ****   rq.cparam = &cp;
ARM GAS  C:\Users\choee\AppData\Local\Temp\ccvdfN2I.s 			page 67


 2710              		.loc 1 989 0
 2711 003c 02AB     		add	r3, sp, #8
 2712              	.LVL217:
 2713 003e 0893     		str	r3, [sp, #32]
 990:Middlewares/ST/BlueNRG-MS/hci/controller/bluenrg_gap_aci.c ****   rq.clen = sizeof(cp);
 2714              		.loc 1 990 0
 2715 0040 0E23     		movs	r3, #14
 2716              	.LVL218:
 2717 0042 0993     		str	r3, [sp, #36]
 991:Middlewares/ST/BlueNRG-MS/hci/controller/bluenrg_gap_aci.c ****   rq.event = EVT_CMD_STATUS;
 2718              		.loc 1 991 0
 2719 0044 0F23     		movs	r3, #15
 2720 0046 0793     		str	r3, [sp, #28]
 992:Middlewares/ST/BlueNRG-MS/hci/controller/bluenrg_gap_aci.c ****   rq.rparam = &status;
 2721              		.loc 1 992 0
 2722 0048 0DF10703 		add	r3, sp, #7
 2723 004c 0A93     		str	r3, [sp, #40]
 993:Middlewares/ST/BlueNRG-MS/hci/controller/bluenrg_gap_aci.c ****   rq.rlen = 1;
 2724              		.loc 1 993 0
 2725 004e 0123     		movs	r3, #1
 2726 0050 0B93     		str	r3, [sp, #44]
 994:Middlewares/ST/BlueNRG-MS/hci/controller/bluenrg_gap_aci.c ****   
 995:Middlewares/ST/BlueNRG-MS/hci/controller/bluenrg_gap_aci.c ****   if (hci_send_req(&rq, FALSE) < 0)
 2727              		.loc 1 995 0
 2728 0052 0021     		movs	r1, #0
 2729              	.LVL219:
 2730 0054 06A8     		add	r0, sp, #24
 2731 0056 FFF7FEFF 		bl	hci_send_req
 2732              	.LVL220:
 2733 005a 0028     		cmp	r0, #0
 2734 005c 03DB     		blt	.L136
 996:Middlewares/ST/BlueNRG-MS/hci/controller/bluenrg_gap_aci.c ****     return BLE_STATUS_TIMEOUT;
 997:Middlewares/ST/BlueNRG-MS/hci/controller/bluenrg_gap_aci.c **** 
 998:Middlewares/ST/BlueNRG-MS/hci/controller/bluenrg_gap_aci.c ****   return status;
 2735              		.loc 1 998 0
 2736 005e 9DF80700 		ldrb	r0, [sp, #7]	@ zero_extendqisi2
 2737              	.L135:
 999:Middlewares/ST/BlueNRG-MS/hci/controller/bluenrg_gap_aci.c **** }
 2738              		.loc 1 999 0
 2739 0062 0CB0     		add	sp, sp, #48
 2740              	.LCFI119:
 2741              		.cfi_remember_state
 2742              		.cfi_def_cfa_offset 8
 2743              		@ sp needed
 2744 0064 10BD     		pop	{r4, pc}
 2745              	.LVL221:
 2746              	.L136:
 2747              	.LCFI120:
 2748              		.cfi_restore_state
 996:Middlewares/ST/BlueNRG-MS/hci/controller/bluenrg_gap_aci.c ****     return BLE_STATUS_TIMEOUT;
 2749              		.loc 1 996 0
 2750 0066 FF20     		movs	r0, #255
 2751 0068 FBE7     		b	.L135
 2752              		.cfi_endproc
 2753              	.LFE160:
 2755              		.section	.text.aci_gap_start_selective_conn_establish_proc,"ax",%progbits
 2756              		.align	1
ARM GAS  C:\Users\choee\AppData\Local\Temp\ccvdfN2I.s 			page 68


 2757              		.global	aci_gap_start_selective_conn_establish_proc
 2758              		.syntax unified
 2759              		.thumb
 2760              		.thumb_func
 2761              		.fpu fpv4-sp-d16
 2763              	aci_gap_start_selective_conn_establish_proc:
 2764              	.LFB161:
1000:Middlewares/ST/BlueNRG-MS/hci/controller/bluenrg_gap_aci.c **** 
1001:Middlewares/ST/BlueNRG-MS/hci/controller/bluenrg_gap_aci.c **** tBleStatus aci_gap_start_selective_conn_establish_proc(uint8_t scan_type, uint16_t scan_interval, u
1002:Middlewares/ST/BlueNRG-MS/hci/controller/bluenrg_gap_aci.c **** 						 uint8_t own_address_type, uint8_t filter_duplicates, uint8_t num_whitelist_entries,
1003:Middlewares/ST/BlueNRG-MS/hci/controller/bluenrg_gap_aci.c ****                          const uint8_t *addr_array)
1004:Middlewares/ST/BlueNRG-MS/hci/controller/bluenrg_gap_aci.c **** {
 2765              		.loc 1 1004 0
 2766              		.cfi_startproc
 2767              		@ args = 12, pretend = 0, frame = 160
 2768              		@ frame_needed = 0, uses_anonymous_args = 0
 2769              	.LVL222:
 2770 0000 70B5     		push	{r4, r5, r6, lr}
 2771              	.LCFI121:
 2772              		.cfi_def_cfa_offset 16
 2773              		.cfi_offset 4, -16
 2774              		.cfi_offset 5, -12
 2775              		.cfi_offset 6, -8
 2776              		.cfi_offset 14, -4
 2777 0002 A8B0     		sub	sp, sp, #160
 2778              	.LCFI122:
 2779              		.cfi_def_cfa_offset 176
 2780 0004 9DF8B440 		ldrb	r4, [sp, #180]	@ zero_extendqisi2
1005:Middlewares/ST/BlueNRG-MS/hci/controller/bluenrg_gap_aci.c ****   struct hci_request rq;
1006:Middlewares/ST/BlueNRG-MS/hci/controller/bluenrg_gap_aci.c ****   gap_start_selective_conn_establish_proc_cp cp;
1007:Middlewares/ST/BlueNRG-MS/hci/controller/bluenrg_gap_aci.c ****   uint8_t status;
1008:Middlewares/ST/BlueNRG-MS/hci/controller/bluenrg_gap_aci.c ****   
1009:Middlewares/ST/BlueNRG-MS/hci/controller/bluenrg_gap_aci.c ****   if (((num_whitelist_entries*7)+GAP_START_SELECTIVE_CONN_ESTABLISH_PROC_CP_SIZE) > HCI_MAX_PAYLOAD
 2781              		.loc 1 1009 0
 2782 0008 C4EBC406 		rsb	r6, r4, r4, lsl #3
 2783 000c 06F10805 		add	r5, r6, #8
 2784 0010 802D     		cmp	r5, #128
 2785 0012 02DD     		ble	.L143
1010:Middlewares/ST/BlueNRG-MS/hci/controller/bluenrg_gap_aci.c ****     return BLE_STATUS_INVALID_PARAMS;
 2786              		.loc 1 1010 0
 2787 0014 4220     		movs	r0, #66
 2788              	.LVL223:
 2789              	.L139:
1011:Middlewares/ST/BlueNRG-MS/hci/controller/bluenrg_gap_aci.c ****   
1012:Middlewares/ST/BlueNRG-MS/hci/controller/bluenrg_gap_aci.c ****   cp.scan_type = scan_type;
1013:Middlewares/ST/BlueNRG-MS/hci/controller/bluenrg_gap_aci.c ****   cp.scan_interval = htobs(scan_interval);
1014:Middlewares/ST/BlueNRG-MS/hci/controller/bluenrg_gap_aci.c ****   cp.scan_window = htobs(scan_window);
1015:Middlewares/ST/BlueNRG-MS/hci/controller/bluenrg_gap_aci.c ****   cp.own_address_type = own_address_type;
1016:Middlewares/ST/BlueNRG-MS/hci/controller/bluenrg_gap_aci.c ****   cp.filter_duplicates = filter_duplicates;
1017:Middlewares/ST/BlueNRG-MS/hci/controller/bluenrg_gap_aci.c ****   cp.num_whitelist_entries = num_whitelist_entries;  
1018:Middlewares/ST/BlueNRG-MS/hci/controller/bluenrg_gap_aci.c ****   
1019:Middlewares/ST/BlueNRG-MS/hci/controller/bluenrg_gap_aci.c ****   BLUENRG_memcpy(cp.addr_array, addr_array, (num_whitelist_entries*7));
1020:Middlewares/ST/BlueNRG-MS/hci/controller/bluenrg_gap_aci.c **** 
1021:Middlewares/ST/BlueNRG-MS/hci/controller/bluenrg_gap_aci.c ****   BLUENRG_memset(&rq, 0, sizeof(rq));
1022:Middlewares/ST/BlueNRG-MS/hci/controller/bluenrg_gap_aci.c ****   rq.ogf = OGF_VENDOR_CMD;
1023:Middlewares/ST/BlueNRG-MS/hci/controller/bluenrg_gap_aci.c ****   rq.ocf = OCF_GAP_START_SELECTIVE_CONN_ESTABLISH_PROC;
1024:Middlewares/ST/BlueNRG-MS/hci/controller/bluenrg_gap_aci.c ****   rq.cparam = &cp;
ARM GAS  C:\Users\choee\AppData\Local\Temp\ccvdfN2I.s 			page 69


1025:Middlewares/ST/BlueNRG-MS/hci/controller/bluenrg_gap_aci.c ****   rq.clen = GAP_START_SELECTIVE_CONN_ESTABLISH_PROC_CP_SIZE + (num_whitelist_entries*7);
1026:Middlewares/ST/BlueNRG-MS/hci/controller/bluenrg_gap_aci.c ****   rq.event = EVT_CMD_STATUS;
1027:Middlewares/ST/BlueNRG-MS/hci/controller/bluenrg_gap_aci.c ****   rq.rparam = &status;
1028:Middlewares/ST/BlueNRG-MS/hci/controller/bluenrg_gap_aci.c ****   rq.rlen = 1;
1029:Middlewares/ST/BlueNRG-MS/hci/controller/bluenrg_gap_aci.c ****   
1030:Middlewares/ST/BlueNRG-MS/hci/controller/bluenrg_gap_aci.c ****   if (hci_send_req(&rq, FALSE) < 0)
1031:Middlewares/ST/BlueNRG-MS/hci/controller/bluenrg_gap_aci.c ****     return BLE_STATUS_TIMEOUT;
1032:Middlewares/ST/BlueNRG-MS/hci/controller/bluenrg_gap_aci.c **** 
1033:Middlewares/ST/BlueNRG-MS/hci/controller/bluenrg_gap_aci.c ****   return status;
1034:Middlewares/ST/BlueNRG-MS/hci/controller/bluenrg_gap_aci.c **** }
 2790              		.loc 1 1034 0
 2791 0016 28B0     		add	sp, sp, #160
 2792              	.LCFI123:
 2793              		.cfi_remember_state
 2794              		.cfi_def_cfa_offset 16
 2795              		@ sp needed
 2796 0018 70BD     		pop	{r4, r5, r6, pc}
 2797              	.LVL224:
 2798              	.L143:
 2799              	.LCFI124:
 2800              		.cfi_restore_state
1012:Middlewares/ST/BlueNRG-MS/hci/controller/bluenrg_gap_aci.c ****   cp.scan_interval = htobs(scan_interval);
 2801              		.loc 1 1012 0
 2802 001a 8DF80800 		strb	r0, [sp, #8]
1013:Middlewares/ST/BlueNRG-MS/hci/controller/bluenrg_gap_aci.c ****   cp.scan_window = htobs(scan_window);
 2803              		.loc 1 1013 0
 2804 001e ADF80910 		strh	r1, [sp, #9]	@ unaligned
1014:Middlewares/ST/BlueNRG-MS/hci/controller/bluenrg_gap_aci.c ****   cp.own_address_type = own_address_type;
 2805              		.loc 1 1014 0
 2806 0022 ADF80B20 		strh	r2, [sp, #11]	@ unaligned
1015:Middlewares/ST/BlueNRG-MS/hci/controller/bluenrg_gap_aci.c ****   cp.filter_duplicates = filter_duplicates;
 2807              		.loc 1 1015 0
 2808 0026 8DF80D30 		strb	r3, [sp, #13]
1016:Middlewares/ST/BlueNRG-MS/hci/controller/bluenrg_gap_aci.c ****   cp.num_whitelist_entries = num_whitelist_entries;  
 2809              		.loc 1 1016 0
 2810 002a 9DF8B030 		ldrb	r3, [sp, #176]	@ zero_extendqisi2
 2811              	.LVL225:
 2812 002e 8DF80E30 		strb	r3, [sp, #14]
1017:Middlewares/ST/BlueNRG-MS/hci/controller/bluenrg_gap_aci.c ****   
 2813              		.loc 1 1017 0
 2814 0032 8DF80F40 		strb	r4, [sp, #15]
1019:Middlewares/ST/BlueNRG-MS/hci/controller/bluenrg_gap_aci.c **** 
 2815              		.loc 1 1019 0
 2816 0036 3246     		mov	r2, r6
 2817              	.LVL226:
 2818 0038 2E99     		ldr	r1, [sp, #184]
 2819              	.LVL227:
 2820 003a 04A8     		add	r0, sp, #16
 2821              	.LVL228:
 2822 003c FFF7FEFF 		bl	memcpy
 2823              	.LVL229:
1022:Middlewares/ST/BlueNRG-MS/hci/controller/bluenrg_gap_aci.c ****   rq.ocf = OCF_GAP_START_SELECTIVE_CONN_ESTABLISH_PROC;
 2824              		.loc 1 1022 0
 2825 0040 3F23     		movs	r3, #63
 2826 0042 ADF88830 		strh	r3, [sp, #136]	@ movhi
1023:Middlewares/ST/BlueNRG-MS/hci/controller/bluenrg_gap_aci.c ****   rq.cparam = &cp;
 2827              		.loc 1 1023 0
ARM GAS  C:\Users\choee\AppData\Local\Temp\ccvdfN2I.s 			page 70


 2828 0046 9B23     		movs	r3, #155
 2829 0048 ADF88A30 		strh	r3, [sp, #138]	@ movhi
1024:Middlewares/ST/BlueNRG-MS/hci/controller/bluenrg_gap_aci.c ****   rq.clen = GAP_START_SELECTIVE_CONN_ESTABLISH_PROC_CP_SIZE + (num_whitelist_entries*7);
 2830              		.loc 1 1024 0
 2831 004c 02AB     		add	r3, sp, #8
 2832 004e 2493     		str	r3, [sp, #144]
1025:Middlewares/ST/BlueNRG-MS/hci/controller/bluenrg_gap_aci.c ****   rq.event = EVT_CMD_STATUS;
 2833              		.loc 1 1025 0
 2834 0050 2595     		str	r5, [sp, #148]
1026:Middlewares/ST/BlueNRG-MS/hci/controller/bluenrg_gap_aci.c ****   rq.rparam = &status;
 2835              		.loc 1 1026 0
 2836 0052 0F23     		movs	r3, #15
 2837 0054 2393     		str	r3, [sp, #140]
1027:Middlewares/ST/BlueNRG-MS/hci/controller/bluenrg_gap_aci.c ****   rq.rlen = 1;
 2838              		.loc 1 1027 0
 2839 0056 0DF10703 		add	r3, sp, #7
 2840 005a 2693     		str	r3, [sp, #152]
1028:Middlewares/ST/BlueNRG-MS/hci/controller/bluenrg_gap_aci.c ****   
 2841              		.loc 1 1028 0
 2842 005c 0123     		movs	r3, #1
 2843 005e 2793     		str	r3, [sp, #156]
1030:Middlewares/ST/BlueNRG-MS/hci/controller/bluenrg_gap_aci.c ****     return BLE_STATUS_TIMEOUT;
 2844              		.loc 1 1030 0
 2845 0060 0021     		movs	r1, #0
 2846 0062 22A8     		add	r0, sp, #136
 2847 0064 FFF7FEFF 		bl	hci_send_req
 2848              	.LVL230:
 2849 0068 0028     		cmp	r0, #0
 2850 006a 02DB     		blt	.L141
1033:Middlewares/ST/BlueNRG-MS/hci/controller/bluenrg_gap_aci.c **** }
 2851              		.loc 1 1033 0
 2852 006c 9DF80700 		ldrb	r0, [sp, #7]	@ zero_extendqisi2
 2853 0070 D1E7     		b	.L139
 2854              	.L141:
1031:Middlewares/ST/BlueNRG-MS/hci/controller/bluenrg_gap_aci.c **** 
 2855              		.loc 1 1031 0
 2856 0072 FF20     		movs	r0, #255
 2857 0074 CFE7     		b	.L139
 2858              		.cfi_endproc
 2859              	.LFE161:
 2861              		.section	.text.aci_gap_create_connection,"ax",%progbits
 2862              		.align	1
 2863              		.global	aci_gap_create_connection
 2864              		.syntax unified
 2865              		.thumb
 2866              		.thumb_func
 2867              		.fpu fpv4-sp-d16
 2869              	aci_gap_create_connection:
 2870              	.LFB162:
1035:Middlewares/ST/BlueNRG-MS/hci/controller/bluenrg_gap_aci.c **** 
1036:Middlewares/ST/BlueNRG-MS/hci/controller/bluenrg_gap_aci.c **** tBleStatus aci_gap_create_connection(uint16_t scanInterval, uint16_t scanWindow,
1037:Middlewares/ST/BlueNRG-MS/hci/controller/bluenrg_gap_aci.c **** 				     uint8_t peer_bdaddr_type, tBDAddr peer_bdaddr,	
1038:Middlewares/ST/BlueNRG-MS/hci/controller/bluenrg_gap_aci.c **** 				     uint8_t own_bdaddr_type, uint16_t conn_min_interval,	
1039:Middlewares/ST/BlueNRG-MS/hci/controller/bluenrg_gap_aci.c **** 				     uint16_t conn_max_interval, uint16_t conn_latency,	
1040:Middlewares/ST/BlueNRG-MS/hci/controller/bluenrg_gap_aci.c **** 				     uint16_t supervision_timeout, uint16_t min_conn_length, 
1041:Middlewares/ST/BlueNRG-MS/hci/controller/bluenrg_gap_aci.c **** 				     uint16_t max_conn_length)
1042:Middlewares/ST/BlueNRG-MS/hci/controller/bluenrg_gap_aci.c **** {
ARM GAS  C:\Users\choee\AppData\Local\Temp\ccvdfN2I.s 			page 71


 2871              		.loc 1 1042 0
 2872              		.cfi_startproc
 2873              		@ args = 28, pretend = 0, frame = 56
 2874              		@ frame_needed = 0, uses_anonymous_args = 0
 2875              	.LVL231:
 2876 0000 00B5     		push	{lr}
 2877              	.LCFI125:
 2878              		.cfi_def_cfa_offset 4
 2879              		.cfi_offset 14, -4
 2880 0002 8FB0     		sub	sp, sp, #60
 2881              	.LCFI126:
 2882              		.cfi_def_cfa_offset 64
1043:Middlewares/ST/BlueNRG-MS/hci/controller/bluenrg_gap_aci.c ****   struct hci_request rq;
1044:Middlewares/ST/BlueNRG-MS/hci/controller/bluenrg_gap_aci.c ****   gap_create_connection_cp cp;
1045:Middlewares/ST/BlueNRG-MS/hci/controller/bluenrg_gap_aci.c ****   uint8_t status;  
1046:Middlewares/ST/BlueNRG-MS/hci/controller/bluenrg_gap_aci.c **** 
1047:Middlewares/ST/BlueNRG-MS/hci/controller/bluenrg_gap_aci.c ****   cp.scanInterval = htobs(scanInterval);
 2883              		.loc 1 1047 0
 2884 0004 ADF80800 		strh	r0, [sp, #8]	@ movhi
1048:Middlewares/ST/BlueNRG-MS/hci/controller/bluenrg_gap_aci.c ****   cp.scanWindow = htobs(scanWindow);
 2885              		.loc 1 1048 0
 2886 0008 ADF80A10 		strh	r1, [sp, #10]	@ movhi
1049:Middlewares/ST/BlueNRG-MS/hci/controller/bluenrg_gap_aci.c ****   cp.peer_bdaddr_type = peer_bdaddr_type;
 2887              		.loc 1 1049 0
 2888 000c 8DF80C20 		strb	r2, [sp, #12]
1050:Middlewares/ST/BlueNRG-MS/hci/controller/bluenrg_gap_aci.c ****   BLUENRG_memcpy(cp.peer_bdaddr, peer_bdaddr, 6);
 2889              		.loc 1 1050 0
 2890 0010 1A68     		ldr	r2, [r3]	@ unaligned
 2891              	.LVL232:
 2892 0012 CDF80D20 		str	r2, [sp, #13]	@ unaligned
 2893 0016 9B88     		ldrh	r3, [r3, #4]	@ unaligned
 2894              	.LVL233:
 2895 0018 ADF81130 		strh	r3, [sp, #17]	@ unaligned
1051:Middlewares/ST/BlueNRG-MS/hci/controller/bluenrg_gap_aci.c ****   cp.own_bdaddr_type = own_bdaddr_type;
 2896              		.loc 1 1051 0
 2897 001c 9DF84030 		ldrb	r3, [sp, #64]	@ zero_extendqisi2
 2898 0020 8DF81330 		strb	r3, [sp, #19]
1052:Middlewares/ST/BlueNRG-MS/hci/controller/bluenrg_gap_aci.c ****   cp.conn_min_interval = htobs(conn_min_interval);
 2899              		.loc 1 1052 0
 2900 0024 BDF84430 		ldrh	r3, [sp, #68]
 2901 0028 ADF81430 		strh	r3, [sp, #20]	@ movhi
1053:Middlewares/ST/BlueNRG-MS/hci/controller/bluenrg_gap_aci.c ****   cp.conn_max_interval = htobs(conn_max_interval);
 2902              		.loc 1 1053 0
 2903 002c BDF84830 		ldrh	r3, [sp, #72]
 2904 0030 ADF81630 		strh	r3, [sp, #22]	@ movhi
1054:Middlewares/ST/BlueNRG-MS/hci/controller/bluenrg_gap_aci.c ****   cp.conn_latency = htobs(conn_latency);
 2905              		.loc 1 1054 0
 2906 0034 BDF84C30 		ldrh	r3, [sp, #76]
 2907 0038 ADF81830 		strh	r3, [sp, #24]	@ movhi
1055:Middlewares/ST/BlueNRG-MS/hci/controller/bluenrg_gap_aci.c ****   cp.supervision_timeout = htobs(supervision_timeout);
 2908              		.loc 1 1055 0
 2909 003c BDF85030 		ldrh	r3, [sp, #80]
 2910 0040 ADF81A30 		strh	r3, [sp, #26]	@ movhi
1056:Middlewares/ST/BlueNRG-MS/hci/controller/bluenrg_gap_aci.c ****   cp.min_conn_length = htobs(min_conn_length);
 2911              		.loc 1 1056 0
 2912 0044 BDF85430 		ldrh	r3, [sp, #84]
 2913 0048 ADF81C30 		strh	r3, [sp, #28]	@ movhi
ARM GAS  C:\Users\choee\AppData\Local\Temp\ccvdfN2I.s 			page 72


1057:Middlewares/ST/BlueNRG-MS/hci/controller/bluenrg_gap_aci.c ****   cp.max_conn_length = htobs(max_conn_length);
 2914              		.loc 1 1057 0
 2915 004c BDF85830 		ldrh	r3, [sp, #88]
 2916 0050 ADF81E30 		strh	r3, [sp, #30]	@ movhi
1058:Middlewares/ST/BlueNRG-MS/hci/controller/bluenrg_gap_aci.c **** 
1059:Middlewares/ST/BlueNRG-MS/hci/controller/bluenrg_gap_aci.c ****   BLUENRG_memset(&rq, 0, sizeof(rq));
1060:Middlewares/ST/BlueNRG-MS/hci/controller/bluenrg_gap_aci.c ****   rq.ogf = OGF_VENDOR_CMD;
 2917              		.loc 1 1060 0
 2918 0054 3F23     		movs	r3, #63
 2919 0056 ADF82030 		strh	r3, [sp, #32]	@ movhi
1061:Middlewares/ST/BlueNRG-MS/hci/controller/bluenrg_gap_aci.c ****   rq.ocf = OCF_GAP_CREATE_CONNECTION;
 2920              		.loc 1 1061 0
 2921 005a 9C23     		movs	r3, #156
 2922 005c ADF82230 		strh	r3, [sp, #34]	@ movhi
1062:Middlewares/ST/BlueNRG-MS/hci/controller/bluenrg_gap_aci.c ****   rq.cparam = &cp;
 2923              		.loc 1 1062 0
 2924 0060 02AB     		add	r3, sp, #8
 2925 0062 0A93     		str	r3, [sp, #40]
1063:Middlewares/ST/BlueNRG-MS/hci/controller/bluenrg_gap_aci.c ****   rq.clen = sizeof(cp);
 2926              		.loc 1 1063 0
 2927 0064 1823     		movs	r3, #24
 2928 0066 0B93     		str	r3, [sp, #44]
1064:Middlewares/ST/BlueNRG-MS/hci/controller/bluenrg_gap_aci.c ****   rq.event = EVT_CMD_STATUS;
 2929              		.loc 1 1064 0
 2930 0068 0F23     		movs	r3, #15
 2931 006a 0993     		str	r3, [sp, #36]
1065:Middlewares/ST/BlueNRG-MS/hci/controller/bluenrg_gap_aci.c ****   rq.rparam = &status;
 2932              		.loc 1 1065 0
 2933 006c 0DF10703 		add	r3, sp, #7
 2934 0070 0C93     		str	r3, [sp, #48]
1066:Middlewares/ST/BlueNRG-MS/hci/controller/bluenrg_gap_aci.c ****   rq.rlen = 1;
 2935              		.loc 1 1066 0
 2936 0072 0123     		movs	r3, #1
 2937 0074 0D93     		str	r3, [sp, #52]
1067:Middlewares/ST/BlueNRG-MS/hci/controller/bluenrg_gap_aci.c ****   
1068:Middlewares/ST/BlueNRG-MS/hci/controller/bluenrg_gap_aci.c ****   if (hci_send_req(&rq, FALSE) < 0)
 2938              		.loc 1 1068 0
 2939 0076 0021     		movs	r1, #0
 2940              	.LVL234:
 2941 0078 08A8     		add	r0, sp, #32
 2942              	.LVL235:
 2943 007a FFF7FEFF 		bl	hci_send_req
 2944              	.LVL236:
 2945 007e 0028     		cmp	r0, #0
 2946 0080 04DB     		blt	.L146
1069:Middlewares/ST/BlueNRG-MS/hci/controller/bluenrg_gap_aci.c ****     return BLE_STATUS_TIMEOUT;
1070:Middlewares/ST/BlueNRG-MS/hci/controller/bluenrg_gap_aci.c **** 
1071:Middlewares/ST/BlueNRG-MS/hci/controller/bluenrg_gap_aci.c ****   return status;
 2947              		.loc 1 1071 0
 2948 0082 9DF80700 		ldrb	r0, [sp, #7]	@ zero_extendqisi2
 2949              	.L145:
1072:Middlewares/ST/BlueNRG-MS/hci/controller/bluenrg_gap_aci.c **** }
 2950              		.loc 1 1072 0
 2951 0086 0FB0     		add	sp, sp, #60
 2952              	.LCFI127:
 2953              		.cfi_remember_state
 2954              		.cfi_def_cfa_offset 4
ARM GAS  C:\Users\choee\AppData\Local\Temp\ccvdfN2I.s 			page 73


 2955              		@ sp needed
 2956 0088 5DF804FB 		ldr	pc, [sp], #4
 2957              	.LVL237:
 2958              	.L146:
 2959              	.LCFI128:
 2960              		.cfi_restore_state
1069:Middlewares/ST/BlueNRG-MS/hci/controller/bluenrg_gap_aci.c ****     return BLE_STATUS_TIMEOUT;
 2961              		.loc 1 1069 0
 2962 008c FF20     		movs	r0, #255
 2963 008e FAE7     		b	.L145
 2964              		.cfi_endproc
 2965              	.LFE162:
 2967              		.section	.text.aci_gap_terminate_gap_procedure,"ax",%progbits
 2968              		.align	1
 2969              		.global	aci_gap_terminate_gap_procedure
 2970              		.syntax unified
 2971              		.thumb
 2972              		.thumb_func
 2973              		.fpu fpv4-sp-d16
 2975              	aci_gap_terminate_gap_procedure:
 2976              	.LFB163:
1073:Middlewares/ST/BlueNRG-MS/hci/controller/bluenrg_gap_aci.c **** 
1074:Middlewares/ST/BlueNRG-MS/hci/controller/bluenrg_gap_aci.c **** tBleStatus aci_gap_terminate_gap_procedure(uint8_t procedure_code)
1075:Middlewares/ST/BlueNRG-MS/hci/controller/bluenrg_gap_aci.c **** {
 2977              		.loc 1 1075 0
 2978              		.cfi_startproc
 2979              		@ args = 0, pretend = 0, frame = 40
 2980              		@ frame_needed = 0, uses_anonymous_args = 0
 2981              	.LVL238:
 2982 0000 00B5     		push	{lr}
 2983              	.LCFI129:
 2984              		.cfi_def_cfa_offset 4
 2985              		.cfi_offset 14, -4
 2986 0002 8BB0     		sub	sp, sp, #44
 2987              	.LCFI130:
 2988              		.cfi_def_cfa_offset 48
 2989 0004 8DF80700 		strb	r0, [sp, #7]
1076:Middlewares/ST/BlueNRG-MS/hci/controller/bluenrg_gap_aci.c ****   struct hci_request rq;
1077:Middlewares/ST/BlueNRG-MS/hci/controller/bluenrg_gap_aci.c ****   uint8_t status;  
1078:Middlewares/ST/BlueNRG-MS/hci/controller/bluenrg_gap_aci.c **** 
1079:Middlewares/ST/BlueNRG-MS/hci/controller/bluenrg_gap_aci.c ****   BLUENRG_memset(&rq, 0, sizeof(rq));
 2990              		.loc 1 1079 0
 2991 0008 0021     		movs	r1, #0
 2992 000a 0591     		str	r1, [sp, #20]
1080:Middlewares/ST/BlueNRG-MS/hci/controller/bluenrg_gap_aci.c ****   rq.ogf = OGF_VENDOR_CMD;
 2993              		.loc 1 1080 0
 2994 000c 3F23     		movs	r3, #63
 2995 000e ADF81030 		strh	r3, [sp, #16]	@ movhi
1081:Middlewares/ST/BlueNRG-MS/hci/controller/bluenrg_gap_aci.c ****   rq.ocf = OCF_GAP_TERMINATE_GAP_PROCEDURE;
 2996              		.loc 1 1081 0
 2997 0012 9D23     		movs	r3, #157
 2998 0014 ADF81230 		strh	r3, [sp, #18]	@ movhi
1082:Middlewares/ST/BlueNRG-MS/hci/controller/bluenrg_gap_aci.c ****   rq.cparam = &procedure_code;
 2999              		.loc 1 1082 0
 3000 0018 0DF10703 		add	r3, sp, #7
 3001 001c 0693     		str	r3, [sp, #24]
1083:Middlewares/ST/BlueNRG-MS/hci/controller/bluenrg_gap_aci.c ****   rq.clen = 1;
ARM GAS  C:\Users\choee\AppData\Local\Temp\ccvdfN2I.s 			page 74


 3002              		.loc 1 1083 0
 3003 001e 0123     		movs	r3, #1
 3004 0020 0793     		str	r3, [sp, #28]
1084:Middlewares/ST/BlueNRG-MS/hci/controller/bluenrg_gap_aci.c ****   rq.rparam = &status;
 3005              		.loc 1 1084 0
 3006 0022 0DF10F02 		add	r2, sp, #15
 3007 0026 0892     		str	r2, [sp, #32]
1085:Middlewares/ST/BlueNRG-MS/hci/controller/bluenrg_gap_aci.c ****   rq.rlen = 1;
 3008              		.loc 1 1085 0
 3009 0028 0993     		str	r3, [sp, #36]
1086:Middlewares/ST/BlueNRG-MS/hci/controller/bluenrg_gap_aci.c ****   
1087:Middlewares/ST/BlueNRG-MS/hci/controller/bluenrg_gap_aci.c ****   if (hci_send_req(&rq, FALSE) < 0)
 3010              		.loc 1 1087 0
 3011 002a 04A8     		add	r0, sp, #16
 3012              	.LVL239:
 3013 002c FFF7FEFF 		bl	hci_send_req
 3014              	.LVL240:
 3015 0030 0028     		cmp	r0, #0
 3016 0032 04DB     		blt	.L150
1088:Middlewares/ST/BlueNRG-MS/hci/controller/bluenrg_gap_aci.c ****     return BLE_STATUS_TIMEOUT;
1089:Middlewares/ST/BlueNRG-MS/hci/controller/bluenrg_gap_aci.c **** 
1090:Middlewares/ST/BlueNRG-MS/hci/controller/bluenrg_gap_aci.c ****   return status;
 3017              		.loc 1 1090 0
 3018 0034 9DF80F00 		ldrb	r0, [sp, #15]	@ zero_extendqisi2
 3019              	.L149:
1091:Middlewares/ST/BlueNRG-MS/hci/controller/bluenrg_gap_aci.c **** 
1092:Middlewares/ST/BlueNRG-MS/hci/controller/bluenrg_gap_aci.c **** }
 3020              		.loc 1 1092 0
 3021 0038 0BB0     		add	sp, sp, #44
 3022              	.LCFI131:
 3023              		.cfi_remember_state
 3024              		.cfi_def_cfa_offset 4
 3025              		@ sp needed
 3026 003a 5DF804FB 		ldr	pc, [sp], #4
 3027              	.L150:
 3028              	.LCFI132:
 3029              		.cfi_restore_state
1088:Middlewares/ST/BlueNRG-MS/hci/controller/bluenrg_gap_aci.c ****     return BLE_STATUS_TIMEOUT;
 3030              		.loc 1 1088 0
 3031 003e FF20     		movs	r0, #255
 3032 0040 FAE7     		b	.L149
 3033              		.cfi_endproc
 3034              	.LFE163:
 3036              		.section	.text.aci_gap_start_connection_update,"ax",%progbits
 3037              		.align	1
 3038              		.global	aci_gap_start_connection_update
 3039              		.syntax unified
 3040              		.thumb
 3041              		.thumb_func
 3042              		.fpu fpv4-sp-d16
 3044              	aci_gap_start_connection_update:
 3045              	.LFB164:
1093:Middlewares/ST/BlueNRG-MS/hci/controller/bluenrg_gap_aci.c **** 
1094:Middlewares/ST/BlueNRG-MS/hci/controller/bluenrg_gap_aci.c **** tBleStatus aci_gap_start_connection_update(uint16_t conn_handle, uint16_t conn_min_interval,	
1095:Middlewares/ST/BlueNRG-MS/hci/controller/bluenrg_gap_aci.c ****                                            uint16_t conn_max_interval, uint16_t conn_latency,	
1096:Middlewares/ST/BlueNRG-MS/hci/controller/bluenrg_gap_aci.c ****                                            uint16_t supervision_timeout, uint16_t min_conn_length, 
1097:Middlewares/ST/BlueNRG-MS/hci/controller/bluenrg_gap_aci.c ****                                            uint16_t max_conn_length)
ARM GAS  C:\Users\choee\AppData\Local\Temp\ccvdfN2I.s 			page 75


1098:Middlewares/ST/BlueNRG-MS/hci/controller/bluenrg_gap_aci.c **** {
 3046              		.loc 1 1098 0
 3047              		.cfi_startproc
 3048              		@ args = 12, pretend = 0, frame = 48
 3049              		@ frame_needed = 0, uses_anonymous_args = 0
 3050              	.LVL241:
 3051 0000 00B5     		push	{lr}
 3052              	.LCFI133:
 3053              		.cfi_def_cfa_offset 4
 3054              		.cfi_offset 14, -4
 3055 0002 8DB0     		sub	sp, sp, #52
 3056              	.LCFI134:
 3057              		.cfi_def_cfa_offset 56
1099:Middlewares/ST/BlueNRG-MS/hci/controller/bluenrg_gap_aci.c ****   struct hci_request rq;
1100:Middlewares/ST/BlueNRG-MS/hci/controller/bluenrg_gap_aci.c ****   gap_start_connection_update_cp cp;
1101:Middlewares/ST/BlueNRG-MS/hci/controller/bluenrg_gap_aci.c ****   uint8_t status;  
1102:Middlewares/ST/BlueNRG-MS/hci/controller/bluenrg_gap_aci.c **** 
1103:Middlewares/ST/BlueNRG-MS/hci/controller/bluenrg_gap_aci.c ****   cp.conn_handle = htobs(conn_handle);
 3058              		.loc 1 1103 0
 3059 0004 ADF80800 		strh	r0, [sp, #8]	@ movhi
1104:Middlewares/ST/BlueNRG-MS/hci/controller/bluenrg_gap_aci.c ****   cp.conn_min_interval = htobs(conn_min_interval);
 3060              		.loc 1 1104 0
 3061 0008 ADF80A10 		strh	r1, [sp, #10]	@ movhi
1105:Middlewares/ST/BlueNRG-MS/hci/controller/bluenrg_gap_aci.c ****   cp.conn_max_interval = htobs(conn_max_interval);
 3062              		.loc 1 1105 0
 3063 000c ADF80C20 		strh	r2, [sp, #12]	@ movhi
1106:Middlewares/ST/BlueNRG-MS/hci/controller/bluenrg_gap_aci.c ****   cp.conn_latency = htobs(conn_latency);
 3064              		.loc 1 1106 0
 3065 0010 ADF80E30 		strh	r3, [sp, #14]	@ movhi
1107:Middlewares/ST/BlueNRG-MS/hci/controller/bluenrg_gap_aci.c ****   cp.supervision_timeout = htobs(supervision_timeout);
 3066              		.loc 1 1107 0
 3067 0014 BDF83830 		ldrh	r3, [sp, #56]
 3068              	.LVL242:
 3069 0018 ADF81030 		strh	r3, [sp, #16]	@ movhi
1108:Middlewares/ST/BlueNRG-MS/hci/controller/bluenrg_gap_aci.c ****   cp.min_conn_length = htobs(min_conn_length);
 3070              		.loc 1 1108 0
 3071 001c BDF83C30 		ldrh	r3, [sp, #60]
 3072 0020 ADF81230 		strh	r3, [sp, #18]	@ movhi
1109:Middlewares/ST/BlueNRG-MS/hci/controller/bluenrg_gap_aci.c ****   cp.max_conn_length = htobs(max_conn_length);
 3073              		.loc 1 1109 0
 3074 0024 BDF84030 		ldrh	r3, [sp, #64]
 3075 0028 ADF81430 		strh	r3, [sp, #20]	@ movhi
1110:Middlewares/ST/BlueNRG-MS/hci/controller/bluenrg_gap_aci.c **** 
1111:Middlewares/ST/BlueNRG-MS/hci/controller/bluenrg_gap_aci.c ****   BLUENRG_memset(&rq, 0, sizeof(rq));
1112:Middlewares/ST/BlueNRG-MS/hci/controller/bluenrg_gap_aci.c ****   rq.ogf = OGF_VENDOR_CMD;
 3076              		.loc 1 1112 0
 3077 002c 3F23     		movs	r3, #63
 3078 002e ADF81830 		strh	r3, [sp, #24]	@ movhi
1113:Middlewares/ST/BlueNRG-MS/hci/controller/bluenrg_gap_aci.c ****   rq.ocf = OCF_GAP_START_CONNECTION_UPDATE;
 3079              		.loc 1 1113 0
 3080 0032 9E23     		movs	r3, #158
 3081 0034 ADF81A30 		strh	r3, [sp, #26]	@ movhi
1114:Middlewares/ST/BlueNRG-MS/hci/controller/bluenrg_gap_aci.c ****   rq.cparam = &cp;
 3082              		.loc 1 1114 0
 3083 0038 02AB     		add	r3, sp, #8
 3084 003a 0893     		str	r3, [sp, #32]
1115:Middlewares/ST/BlueNRG-MS/hci/controller/bluenrg_gap_aci.c ****   rq.clen = sizeof(cp);
ARM GAS  C:\Users\choee\AppData\Local\Temp\ccvdfN2I.s 			page 76


 3085              		.loc 1 1115 0
 3086 003c 0E23     		movs	r3, #14
 3087 003e 0993     		str	r3, [sp, #36]
1116:Middlewares/ST/BlueNRG-MS/hci/controller/bluenrg_gap_aci.c ****   rq.event = EVT_CMD_STATUS;
 3088              		.loc 1 1116 0
 3089 0040 0F23     		movs	r3, #15
 3090 0042 0793     		str	r3, [sp, #28]
1117:Middlewares/ST/BlueNRG-MS/hci/controller/bluenrg_gap_aci.c ****   rq.rparam = &status;
 3091              		.loc 1 1117 0
 3092 0044 0DF10703 		add	r3, sp, #7
 3093 0048 0A93     		str	r3, [sp, #40]
1118:Middlewares/ST/BlueNRG-MS/hci/controller/bluenrg_gap_aci.c ****   rq.rlen = 1;
 3094              		.loc 1 1118 0
 3095 004a 0123     		movs	r3, #1
 3096 004c 0B93     		str	r3, [sp, #44]
1119:Middlewares/ST/BlueNRG-MS/hci/controller/bluenrg_gap_aci.c ****   
1120:Middlewares/ST/BlueNRG-MS/hci/controller/bluenrg_gap_aci.c ****   if (hci_send_req(&rq, FALSE) < 0)
 3097              		.loc 1 1120 0
 3098 004e 0021     		movs	r1, #0
 3099              	.LVL243:
 3100 0050 06A8     		add	r0, sp, #24
 3101              	.LVL244:
 3102 0052 FFF7FEFF 		bl	hci_send_req
 3103              	.LVL245:
 3104 0056 0028     		cmp	r0, #0
 3105 0058 04DB     		blt	.L154
1121:Middlewares/ST/BlueNRG-MS/hci/controller/bluenrg_gap_aci.c ****     return BLE_STATUS_TIMEOUT;
1122:Middlewares/ST/BlueNRG-MS/hci/controller/bluenrg_gap_aci.c **** 
1123:Middlewares/ST/BlueNRG-MS/hci/controller/bluenrg_gap_aci.c ****   return status;
 3106              		.loc 1 1123 0
 3107 005a 9DF80700 		ldrb	r0, [sp, #7]	@ zero_extendqisi2
 3108              	.L153:
1124:Middlewares/ST/BlueNRG-MS/hci/controller/bluenrg_gap_aci.c **** }
 3109              		.loc 1 1124 0
 3110 005e 0DB0     		add	sp, sp, #52
 3111              	.LCFI135:
 3112              		.cfi_remember_state
 3113              		.cfi_def_cfa_offset 4
 3114              		@ sp needed
 3115 0060 5DF804FB 		ldr	pc, [sp], #4
 3116              	.LVL246:
 3117              	.L154:
 3118              	.LCFI136:
 3119              		.cfi_restore_state
1121:Middlewares/ST/BlueNRG-MS/hci/controller/bluenrg_gap_aci.c ****     return BLE_STATUS_TIMEOUT;
 3120              		.loc 1 1121 0
 3121 0064 FF20     		movs	r0, #255
 3122 0066 FAE7     		b	.L153
 3123              		.cfi_endproc
 3124              	.LFE164:
 3126              		.section	.text.aci_gap_send_pairing_request,"ax",%progbits
 3127              		.align	1
 3128              		.global	aci_gap_send_pairing_request
 3129              		.syntax unified
 3130              		.thumb
 3131              		.thumb_func
 3132              		.fpu fpv4-sp-d16
ARM GAS  C:\Users\choee\AppData\Local\Temp\ccvdfN2I.s 			page 77


 3134              	aci_gap_send_pairing_request:
 3135              	.LFB165:
1125:Middlewares/ST/BlueNRG-MS/hci/controller/bluenrg_gap_aci.c **** 
1126:Middlewares/ST/BlueNRG-MS/hci/controller/bluenrg_gap_aci.c **** tBleStatus aci_gap_send_pairing_request(uint16_t conn_handle, uint8_t force_rebond)
1127:Middlewares/ST/BlueNRG-MS/hci/controller/bluenrg_gap_aci.c **** {
 3136              		.loc 1 1127 0
 3137              		.cfi_startproc
 3138              		@ args = 0, pretend = 0, frame = 32
 3139              		@ frame_needed = 0, uses_anonymous_args = 0
 3140              	.LVL247:
 3141 0000 00B5     		push	{lr}
 3142              	.LCFI137:
 3143              		.cfi_def_cfa_offset 4
 3144              		.cfi_offset 14, -4
 3145 0002 89B0     		sub	sp, sp, #36
 3146              	.LCFI138:
 3147              		.cfi_def_cfa_offset 40
1128:Middlewares/ST/BlueNRG-MS/hci/controller/bluenrg_gap_aci.c ****   struct hci_request rq;
1129:Middlewares/ST/BlueNRG-MS/hci/controller/bluenrg_gap_aci.c ****   gap_send_pairing_request_cp cp;
1130:Middlewares/ST/BlueNRG-MS/hci/controller/bluenrg_gap_aci.c ****   uint8_t status;  
1131:Middlewares/ST/BlueNRG-MS/hci/controller/bluenrg_gap_aci.c **** 
1132:Middlewares/ST/BlueNRG-MS/hci/controller/bluenrg_gap_aci.c ****   cp.conn_handle = htobs(conn_handle);
 3148              		.loc 1 1132 0
 3149 0004 ADF80400 		strh	r0, [sp, #4]	@ movhi
1133:Middlewares/ST/BlueNRG-MS/hci/controller/bluenrg_gap_aci.c ****   cp.force_rebond = force_rebond;
 3150              		.loc 1 1133 0
 3151 0008 8DF80610 		strb	r1, [sp, #6]
1134:Middlewares/ST/BlueNRG-MS/hci/controller/bluenrg_gap_aci.c **** 
1135:Middlewares/ST/BlueNRG-MS/hci/controller/bluenrg_gap_aci.c ****   BLUENRG_memset(&rq, 0, sizeof(rq));
1136:Middlewares/ST/BlueNRG-MS/hci/controller/bluenrg_gap_aci.c ****   rq.ogf = OGF_VENDOR_CMD;
 3152              		.loc 1 1136 0
 3153 000c 3F23     		movs	r3, #63
 3154 000e ADF80830 		strh	r3, [sp, #8]	@ movhi
1137:Middlewares/ST/BlueNRG-MS/hci/controller/bluenrg_gap_aci.c ****   rq.ocf = OCF_GAP_SEND_PAIRING_REQUEST;
 3155              		.loc 1 1137 0
 3156 0012 9F23     		movs	r3, #159
 3157 0014 ADF80A30 		strh	r3, [sp, #10]	@ movhi
1138:Middlewares/ST/BlueNRG-MS/hci/controller/bluenrg_gap_aci.c ****   rq.cparam = &cp;
 3158              		.loc 1 1138 0
 3159 0018 01AB     		add	r3, sp, #4
 3160 001a 0493     		str	r3, [sp, #16]
1139:Middlewares/ST/BlueNRG-MS/hci/controller/bluenrg_gap_aci.c ****   rq.clen = sizeof(cp);
 3161              		.loc 1 1139 0
 3162 001c 0323     		movs	r3, #3
 3163 001e 0593     		str	r3, [sp, #20]
1140:Middlewares/ST/BlueNRG-MS/hci/controller/bluenrg_gap_aci.c ****   rq.event = EVT_CMD_STATUS;
 3164              		.loc 1 1140 0
 3165 0020 0F23     		movs	r3, #15
 3166 0022 0393     		str	r3, [sp, #12]
1141:Middlewares/ST/BlueNRG-MS/hci/controller/bluenrg_gap_aci.c ****   rq.rparam = &status;
 3167              		.loc 1 1141 0
 3168 0024 0DF10303 		add	r3, sp, #3
 3169 0028 0693     		str	r3, [sp, #24]
1142:Middlewares/ST/BlueNRG-MS/hci/controller/bluenrg_gap_aci.c ****   rq.rlen = 1;
 3170              		.loc 1 1142 0
 3171 002a 0123     		movs	r3, #1
 3172 002c 0793     		str	r3, [sp, #28]
ARM GAS  C:\Users\choee\AppData\Local\Temp\ccvdfN2I.s 			page 78


1143:Middlewares/ST/BlueNRG-MS/hci/controller/bluenrg_gap_aci.c ****   
1144:Middlewares/ST/BlueNRG-MS/hci/controller/bluenrg_gap_aci.c ****   if (hci_send_req(&rq, FALSE) < 0)
 3173              		.loc 1 1144 0
 3174 002e 0021     		movs	r1, #0
 3175              	.LVL248:
 3176 0030 02A8     		add	r0, sp, #8
 3177              	.LVL249:
 3178 0032 FFF7FEFF 		bl	hci_send_req
 3179              	.LVL250:
 3180 0036 0028     		cmp	r0, #0
 3181 0038 04DB     		blt	.L158
1145:Middlewares/ST/BlueNRG-MS/hci/controller/bluenrg_gap_aci.c ****     return BLE_STATUS_TIMEOUT;
1146:Middlewares/ST/BlueNRG-MS/hci/controller/bluenrg_gap_aci.c **** 
1147:Middlewares/ST/BlueNRG-MS/hci/controller/bluenrg_gap_aci.c ****   return status;
 3182              		.loc 1 1147 0
 3183 003a 9DF80300 		ldrb	r0, [sp, #3]	@ zero_extendqisi2
 3184              	.L157:
1148:Middlewares/ST/BlueNRG-MS/hci/controller/bluenrg_gap_aci.c **** }
 3185              		.loc 1 1148 0
 3186 003e 09B0     		add	sp, sp, #36
 3187              	.LCFI139:
 3188              		.cfi_remember_state
 3189              		.cfi_def_cfa_offset 4
 3190              		@ sp needed
 3191 0040 5DF804FB 		ldr	pc, [sp], #4
 3192              	.L158:
 3193              	.LCFI140:
 3194              		.cfi_restore_state
1145:Middlewares/ST/BlueNRG-MS/hci/controller/bluenrg_gap_aci.c ****     return BLE_STATUS_TIMEOUT;
 3195              		.loc 1 1145 0
 3196 0044 FF20     		movs	r0, #255
 3197 0046 FAE7     		b	.L157
 3198              		.cfi_endproc
 3199              	.LFE165:
 3201              		.section	.text.aci_gap_resolve_private_address_IDB05A1,"ax",%progbits
 3202              		.align	1
 3203              		.global	aci_gap_resolve_private_address_IDB05A1
 3204              		.syntax unified
 3205              		.thumb
 3206              		.thumb_func
 3207              		.fpu fpv4-sp-d16
 3209              	aci_gap_resolve_private_address_IDB05A1:
 3210              	.LFB166:
1149:Middlewares/ST/BlueNRG-MS/hci/controller/bluenrg_gap_aci.c **** 
1150:Middlewares/ST/BlueNRG-MS/hci/controller/bluenrg_gap_aci.c **** tBleStatus aci_gap_resolve_private_address_IDB05A1(const tBDAddr private_address, tBDAddr actual_ad
1151:Middlewares/ST/BlueNRG-MS/hci/controller/bluenrg_gap_aci.c **** {
 3211              		.loc 1 1151 0
 3212              		.cfi_startproc
 3213              		@ args = 0, pretend = 0, frame = 40
 3214              		@ frame_needed = 0, uses_anonymous_args = 0
 3215              	.LVL251:
 3216 0000 10B5     		push	{r4, lr}
 3217              	.LCFI141:
 3218              		.cfi_def_cfa_offset 8
 3219              		.cfi_offset 4, -8
 3220              		.cfi_offset 14, -4
 3221 0002 8AB0     		sub	sp, sp, #40
ARM GAS  C:\Users\choee\AppData\Local\Temp\ccvdfN2I.s 			page 79


 3222              	.LCFI142:
 3223              		.cfi_def_cfa_offset 48
 3224 0004 0246     		mov	r2, r0
 3225 0006 0C46     		mov	r4, r1
1152:Middlewares/ST/BlueNRG-MS/hci/controller/bluenrg_gap_aci.c ****   struct hci_request rq;
1153:Middlewares/ST/BlueNRG-MS/hci/controller/bluenrg_gap_aci.c ****   gap_resolve_private_address_cp cp;
1154:Middlewares/ST/BlueNRG-MS/hci/controller/bluenrg_gap_aci.c ****   gap_resolve_private_address_rp rp;
1155:Middlewares/ST/BlueNRG-MS/hci/controller/bluenrg_gap_aci.c **** 
1156:Middlewares/ST/BlueNRG-MS/hci/controller/bluenrg_gap_aci.c ****   BLUENRG_memcpy(cp.address, private_address, 6);
 3226              		.loc 1 1156 0
 3227 0008 02AB     		add	r3, sp, #8
 3228 000a 0068     		ldr	r0, [r0]	@ unaligned
 3229              	.LVL252:
 3230 000c 0290     		str	r0, [sp, #8]
 3231 000e 9288     		ldrh	r2, [r2, #4]	@ unaligned
 3232              	.LVL253:
 3233 0010 ADF80C20 		strh	r2, [sp, #12]	@ unaligned
1157:Middlewares/ST/BlueNRG-MS/hci/controller/bluenrg_gap_aci.c **** 
1158:Middlewares/ST/BlueNRG-MS/hci/controller/bluenrg_gap_aci.c ****   BLUENRG_memset(&rq, 0, sizeof(rq));
 3234              		.loc 1 1158 0
 3235 0014 0021     		movs	r1, #0
 3236              	.LVL254:
 3237 0016 0591     		str	r1, [sp, #20]
1159:Middlewares/ST/BlueNRG-MS/hci/controller/bluenrg_gap_aci.c ****   rq.ogf = OGF_VENDOR_CMD;
 3238              		.loc 1 1159 0
 3239 0018 3F22     		movs	r2, #63
 3240 001a ADF81020 		strh	r2, [sp, #16]	@ movhi
1160:Middlewares/ST/BlueNRG-MS/hci/controller/bluenrg_gap_aci.c ****   rq.ocf = OCF_GAP_RESOLVE_PRIVATE_ADDRESS;
 3241              		.loc 1 1160 0
 3242 001e A022     		movs	r2, #160
 3243 0020 ADF81220 		strh	r2, [sp, #18]	@ movhi
1161:Middlewares/ST/BlueNRG-MS/hci/controller/bluenrg_gap_aci.c ****   rq.cparam = &cp;
 3244              		.loc 1 1161 0
 3245 0024 0693     		str	r3, [sp, #24]
1162:Middlewares/ST/BlueNRG-MS/hci/controller/bluenrg_gap_aci.c ****   rq.clen = sizeof(cp);
 3246              		.loc 1 1162 0
 3247 0026 0623     		movs	r3, #6
 3248 0028 0793     		str	r3, [sp, #28]
1163:Middlewares/ST/BlueNRG-MS/hci/controller/bluenrg_gap_aci.c ****   rq.rparam = &rp;
 3249              		.loc 1 1163 0
 3250 002a CDF820D0 		str	sp, [sp, #32]
1164:Middlewares/ST/BlueNRG-MS/hci/controller/bluenrg_gap_aci.c ****   rq.rlen = sizeof(rp);
 3251              		.loc 1 1164 0
 3252 002e 0723     		movs	r3, #7
 3253 0030 0993     		str	r3, [sp, #36]
1165:Middlewares/ST/BlueNRG-MS/hci/controller/bluenrg_gap_aci.c ****   
1166:Middlewares/ST/BlueNRG-MS/hci/controller/bluenrg_gap_aci.c ****   if (hci_send_req(&rq, FALSE) < 0)
 3254              		.loc 1 1166 0
 3255 0032 04A8     		add	r0, sp, #16
 3256 0034 FFF7FEFF 		bl	hci_send_req
 3257              	.LVL255:
 3258 0038 0028     		cmp	r0, #0
 3259 003a 09DB     		blt	.L162
1167:Middlewares/ST/BlueNRG-MS/hci/controller/bluenrg_gap_aci.c ****     return BLE_STATUS_TIMEOUT;
1168:Middlewares/ST/BlueNRG-MS/hci/controller/bluenrg_gap_aci.c ****   
1169:Middlewares/ST/BlueNRG-MS/hci/controller/bluenrg_gap_aci.c ****   if(rp.status)
 3260              		.loc 1 1169 0
ARM GAS  C:\Users\choee\AppData\Local\Temp\ccvdfN2I.s 			page 80


 3261 003c 9DF80000 		ldrb	r0, [sp]	@ zero_extendqisi2
 3262 0040 38B9     		cbnz	r0, .L161
1170:Middlewares/ST/BlueNRG-MS/hci/controller/bluenrg_gap_aci.c ****     return rp.status;
1171:Middlewares/ST/BlueNRG-MS/hci/controller/bluenrg_gap_aci.c ****   
1172:Middlewares/ST/BlueNRG-MS/hci/controller/bluenrg_gap_aci.c ****   BLUENRG_memcpy(actual_address, rp.address, 6);
 3263              		.loc 1 1172 0
 3264 0042 0AAB     		add	r3, sp, #40
 3265 0044 53F8272D 		ldr	r2, [r3, #-39]!	@ unaligned
 3266 0048 2260     		str	r2, [r4]	@ unaligned
